
pcExe:     file format elf64-x86-64


Disassembly of section .init:

00000000004010c0 <_init>:
  4010c0:	48 83 ec 08          	sub    $0x8,%rsp
  4010c4:	48 8b 05 2d 8f 20 00 	mov    0x208f2d(%rip),%rax        # 609ff8 <_DYNAMIC+0x1e0>
  4010cb:	48 85 c0             	test   %rax,%rax
  4010ce:	74 05                	je     4010d5 <_init+0x15>
  4010d0:	e8 eb 00 00 00       	callq  4011c0 <sqrt@plt+0x10>
  4010d5:	48 83 c4 08          	add    $0x8,%rsp
  4010d9:	c3                   	retq   

Disassembly of section .plt:

00000000004010e0 <free@plt-0x10>:
  4010e0:	ff 35 22 8f 20 00    	pushq  0x208f22(%rip)        # 60a008 <_GLOBAL_OFFSET_TABLE_+0x8>
  4010e6:	ff 25 24 8f 20 00    	jmpq   *0x208f24(%rip)        # 60a010 <_GLOBAL_OFFSET_TABLE_+0x10>
  4010ec:	0f 1f 40 00          	nopl   0x0(%rax)

00000000004010f0 <free@plt>:
  4010f0:	ff 25 22 8f 20 00    	jmpq   *0x208f22(%rip)        # 60a018 <_GLOBAL_OFFSET_TABLE_+0x18>
  4010f6:	68 00 00 00 00       	pushq  $0x0
  4010fb:	e9 e0 ff ff ff       	jmpq   4010e0 <_init+0x20>

0000000000401100 <__isoc99_fscanf@plt>:
  401100:	ff 25 1a 8f 20 00    	jmpq   *0x208f1a(%rip)        # 60a020 <_GLOBAL_OFFSET_TABLE_+0x20>
  401106:	68 01 00 00 00       	pushq  $0x1
  40110b:	e9 d0 ff ff ff       	jmpq   4010e0 <_init+0x20>

0000000000401110 <qsort@plt>:
  401110:	ff 25 12 8f 20 00    	jmpq   *0x208f12(%rip)        # 60a028 <_GLOBAL_OFFSET_TABLE_+0x28>
  401116:	68 02 00 00 00       	pushq  $0x2
  40111b:	e9 c0 ff ff ff       	jmpq   4010e0 <_init+0x20>

0000000000401120 <fread@plt>:
  401120:	ff 25 0a 8f 20 00    	jmpq   *0x208f0a(%rip)        # 60a030 <_GLOBAL_OFFSET_TABLE_+0x30>
  401126:	68 03 00 00 00       	pushq  $0x3
  40112b:	e9 b0 ff ff ff       	jmpq   4010e0 <_init+0x20>

0000000000401130 <fclose@plt>:
  401130:	ff 25 02 8f 20 00    	jmpq   *0x208f02(%rip)        # 60a038 <_GLOBAL_OFFSET_TABLE_+0x38>
  401136:	68 04 00 00 00       	pushq  $0x4
  40113b:	e9 a0 ff ff ff       	jmpq   4010e0 <_init+0x20>

0000000000401140 <__stack_chk_fail@plt>:
  401140:	ff 25 fa 8e 20 00    	jmpq   *0x208efa(%rip)        # 60a040 <_GLOBAL_OFFSET_TABLE_+0x40>
  401146:	68 05 00 00 00       	pushq  $0x5
  40114b:	e9 90 ff ff ff       	jmpq   4010e0 <_init+0x20>

0000000000401150 <printf@plt>:
  401150:	ff 25 f2 8e 20 00    	jmpq   *0x208ef2(%rip)        # 60a048 <_GLOBAL_OFFSET_TABLE_+0x48>
  401156:	68 06 00 00 00       	pushq  $0x6
  40115b:	e9 80 ff ff ff       	jmpq   4010e0 <_init+0x20>

0000000000401160 <__libc_start_main@plt>:
  401160:	ff 25 ea 8e 20 00    	jmpq   *0x208eea(%rip)        # 60a050 <_GLOBAL_OFFSET_TABLE_+0x50>
  401166:	68 07 00 00 00       	pushq  $0x7
  40116b:	e9 70 ff ff ff       	jmpq   4010e0 <_init+0x20>

0000000000401170 <memcpy@plt>:
  401170:	ff 25 e2 8e 20 00    	jmpq   *0x208ee2(%rip)        # 60a058 <_GLOBAL_OFFSET_TABLE_+0x58>
  401176:	68 08 00 00 00       	pushq  $0x8
  40117b:	e9 60 ff ff ff       	jmpq   4010e0 <_init+0x20>

0000000000401180 <malloc@plt>:
  401180:	ff 25 da 8e 20 00    	jmpq   *0x208eda(%rip)        # 60a060 <_GLOBAL_OFFSET_TABLE_+0x60>
  401186:	68 09 00 00 00       	pushq  $0x9
  40118b:	e9 50 ff ff ff       	jmpq   4010e0 <_init+0x20>

0000000000401190 <fopen@plt>:
  401190:	ff 25 d2 8e 20 00    	jmpq   *0x208ed2(%rip)        # 60a068 <_GLOBAL_OFFSET_TABLE_+0x68>
  401196:	68 0a 00 00 00       	pushq  $0xa
  40119b:	e9 40 ff ff ff       	jmpq   4010e0 <_init+0x20>

00000000004011a0 <fmaxf@plt>:
  4011a0:	ff 25 ca 8e 20 00    	jmpq   *0x208eca(%rip)        # 60a070 <_GLOBAL_OFFSET_TABLE_+0x70>
  4011a6:	68 0b 00 00 00       	pushq  $0xb
  4011ab:	e9 30 ff ff ff       	jmpq   4010e0 <_init+0x20>

00000000004011b0 <sqrt@plt>:
  4011b0:	ff 25 c2 8e 20 00    	jmpq   *0x208ec2(%rip)        # 60a078 <_GLOBAL_OFFSET_TABLE_+0x78>
  4011b6:	68 0c 00 00 00       	pushq  $0xc
  4011bb:	e9 20 ff ff ff       	jmpq   4010e0 <_init+0x20>

Disassembly of section .plt.got:

00000000004011c0 <.plt.got>:
  4011c0:	ff 25 32 8e 20 00    	jmpq   *0x208e32(%rip)        # 609ff8 <_DYNAMIC+0x1e0>
  4011c6:	66 90                	xchg   %ax,%ax

Disassembly of section .text:

00000000004011d0 <_start>:
  4011d0:	31 ed                	xor    %ebp,%ebp
  4011d2:	49 89 d1             	mov    %rdx,%r9
  4011d5:	5e                   	pop    %rsi
  4011d6:	48 89 e2             	mov    %rsp,%rdx
  4011d9:	48 83 e4 f0          	and    $0xfffffffffffffff0,%rsp
  4011dd:	50                   	push   %rax
  4011de:	54                   	push   %rsp
  4011df:	49 c7 c0 c0 84 40 00 	mov    $0x4084c0,%r8
  4011e6:	48 c7 c1 50 84 40 00 	mov    $0x408450,%rcx
  4011ed:	48 c7 c7 3d 15 40 00 	mov    $0x40153d,%rdi
  4011f4:	e8 67 ff ff ff       	callq  401160 <__libc_start_main@plt>
  4011f9:	f4                   	hlt    
  4011fa:	66 0f 1f 44 00 00    	nopw   0x0(%rax,%rax,1)

0000000000401200 <deregister_tm_clones>:
  401200:	b8 97 a0 60 00       	mov    $0x60a097,%eax
  401205:	55                   	push   %rbp
  401206:	48 2d 90 a0 60 00    	sub    $0x60a090,%rax
  40120c:	48 83 f8 0e          	cmp    $0xe,%rax
  401210:	48 89 e5             	mov    %rsp,%rbp
  401213:	76 1b                	jbe    401230 <deregister_tm_clones+0x30>
  401215:	b8 00 00 00 00       	mov    $0x0,%eax
  40121a:	48 85 c0             	test   %rax,%rax
  40121d:	74 11                	je     401230 <deregister_tm_clones+0x30>
  40121f:	5d                   	pop    %rbp
  401220:	bf 90 a0 60 00       	mov    $0x60a090,%edi
  401225:	ff e0                	jmpq   *%rax
  401227:	66 0f 1f 84 00 00 00 	nopw   0x0(%rax,%rax,1)
  40122e:	00 00 
  401230:	5d                   	pop    %rbp
  401231:	c3                   	retq   
  401232:	0f 1f 40 00          	nopl   0x0(%rax)
  401236:	66 2e 0f 1f 84 00 00 	nopw   %cs:0x0(%rax,%rax,1)
  40123d:	00 00 00 

0000000000401240 <register_tm_clones>:
  401240:	be 90 a0 60 00       	mov    $0x60a090,%esi
  401245:	55                   	push   %rbp
  401246:	48 81 ee 90 a0 60 00 	sub    $0x60a090,%rsi
  40124d:	48 c1 fe 03          	sar    $0x3,%rsi
  401251:	48 89 e5             	mov    %rsp,%rbp
  401254:	48 89 f0             	mov    %rsi,%rax
  401257:	48 c1 e8 3f          	shr    $0x3f,%rax
  40125b:	48 01 c6             	add    %rax,%rsi
  40125e:	48 d1 fe             	sar    %rsi
  401261:	74 15                	je     401278 <register_tm_clones+0x38>
  401263:	b8 00 00 00 00       	mov    $0x0,%eax
  401268:	48 85 c0             	test   %rax,%rax
  40126b:	74 0b                	je     401278 <register_tm_clones+0x38>
  40126d:	5d                   	pop    %rbp
  40126e:	bf 90 a0 60 00       	mov    $0x60a090,%edi
  401273:	ff e0                	jmpq   *%rax
  401275:	0f 1f 00             	nopl   (%rax)
  401278:	5d                   	pop    %rbp
  401279:	c3                   	retq   
  40127a:	66 0f 1f 44 00 00    	nopw   0x0(%rax,%rax,1)

0000000000401280 <__do_global_dtors_aux>:
  401280:	80 3d 09 8e 20 00 00 	cmpb   $0x0,0x208e09(%rip)        # 60a090 <_edata>
  401287:	75 11                	jne    40129a <__do_global_dtors_aux+0x1a>
  401289:	55                   	push   %rbp
  40128a:	48 89 e5             	mov    %rsp,%rbp
  40128d:	e8 6e ff ff ff       	callq  401200 <deregister_tm_clones>
  401292:	5d                   	pop    %rbp
  401293:	c6 05 f6 8d 20 00 01 	movb   $0x1,0x208df6(%rip)        # 60a090 <_edata>
  40129a:	f3 c3                	repz retq 
  40129c:	0f 1f 40 00          	nopl   0x0(%rax)

00000000004012a0 <frame_dummy>:
  4012a0:	bf 10 9e 60 00       	mov    $0x609e10,%edi
  4012a5:	48 83 3f 00          	cmpq   $0x0,(%rdi)
  4012a9:	75 05                	jne    4012b0 <frame_dummy+0x10>
  4012ab:	eb 93                	jmp    401240 <register_tm_clones>
  4012ad:	0f 1f 00             	nopl   (%rax)
  4012b0:	b8 00 00 00 00       	mov    $0x0,%eax
  4012b5:	48 85 c0             	test   %rax,%rax
  4012b8:	74 f1                	je     4012ab <frame_dummy+0xb>
  4012ba:	55                   	push   %rbp
  4012bb:	48 89 e5             	mov    %rsp,%rbp
  4012be:	ff d0                	callq  *%rax
  4012c0:	5d                   	pop    %rbp
  4012c1:	e9 7a ff ff ff       	jmpq   401240 <register_tm_clones>

00000000004012c6 <readFrame>:
  4012c6:	55                   	push   %rbp
  4012c7:	48 89 e5             	mov    %rsp,%rbp
  4012ca:	48 83 ec 20          	sub    $0x20,%rsp
  4012ce:	48 89 7d e8          	mov    %rdi,-0x18(%rbp)
  4012d2:	48 89 75 e0          	mov    %rsi,-0x20(%rbp)
  4012d6:	c6 45 fb 03          	movb   $0x3,-0x5(%rbp)
  4012da:	c7 45 fc 00 00 00 00 	movl   $0x0,-0x4(%rbp)
  4012e1:	e9 93 00 00 00       	jmpq   401379 <readFrame+0xb3>
  4012e6:	8b 45 fc             	mov    -0x4(%rbp),%eax
  4012e9:	48 c1 e0 04          	shl    $0x4,%rax
  4012ed:	48 89 c2             	mov    %rax,%rdx
  4012f0:	48 8b 45 e8          	mov    -0x18(%rbp),%rax
  4012f4:	48 01 d0             	add    %rdx,%rax
  4012f7:	48 8d 48 08          	lea    0x8(%rax),%rcx
  4012fb:	8b 45 fc             	mov    -0x4(%rbp),%eax
  4012fe:	48 c1 e0 04          	shl    $0x4,%rax
  401302:	48 89 c2             	mov    %rax,%rdx
  401305:	48 8b 45 e8          	mov    -0x18(%rbp),%rax
  401309:	48 01 d0             	add    %rdx,%rax
  40130c:	48 8d 50 04          	lea    0x4(%rax),%rdx
  401310:	8b 45 fc             	mov    -0x4(%rbp),%eax
  401313:	48 c1 e0 04          	shl    $0x4,%rax
  401317:	48 89 c6             	mov    %rax,%rsi
  40131a:	48 8b 45 e8          	mov    -0x18(%rbp),%rax
  40131e:	48 01 f0             	add    %rsi,%rax
  401321:	48 89 c6             	mov    %rax,%rsi
  401324:	48 8b 45 e0          	mov    -0x20(%rbp),%rax
  401328:	49 89 c8             	mov    %rcx,%r8
  40132b:	48 89 d1             	mov    %rdx,%rcx
  40132e:	48 89 f2             	mov    %rsi,%rdx
  401331:	be d8 84 40 00       	mov    $0x4084d8,%esi
  401336:	48 89 c7             	mov    %rax,%rdi
  401339:	b8 00 00 00 00       	mov    $0x0,%eax
  40133e:	e8 bd fd ff ff       	callq  401100 <__isoc99_fscanf@plt>
  401343:	88 45 fb             	mov    %al,-0x5(%rbp)
  401346:	8b 45 fc             	mov    -0x4(%rbp),%eax
  401349:	48 c1 e0 04          	shl    $0x4,%rax
  40134d:	48 89 c2             	mov    %rax,%rdx
  401350:	48 8b 45 e8          	mov    -0x18(%rbp),%rax
  401354:	48 01 d0             	add    %rdx,%rax
  401357:	f3 0f 10 05 d1 71 00 	movss  0x71d1(%rip),%xmm0        # 408530 <_IO_stdin_used+0x60>
  40135e:	00 
  40135f:	f3 0f 11 40 0c       	movss  %xmm0,0xc(%rax)
  401364:	83 45 fc 01          	addl   $0x1,-0x4(%rbp)
  401368:	81 7d fc f4 01 00 00 	cmpl   $0x1f4,-0x4(%rbp)
  40136f:	75 08                	jne    401379 <readFrame+0xb3>
  401371:	8b 45 fc             	mov    -0x4(%rbp),%eax
  401374:	83 e8 01             	sub    $0x1,%eax
  401377:	eb 10                	jmp    401389 <readFrame+0xc3>
  401379:	80 7d fb 03          	cmpb   $0x3,-0x5(%rbp)
  40137d:	0f 84 63 ff ff ff    	je     4012e6 <readFrame+0x20>
  401383:	8b 45 fc             	mov    -0x4(%rbp),%eax
  401386:	83 e8 01             	sub    $0x1,%eax
  401389:	c9                   	leaveq 
  40138a:	c3                   	retq   

000000000040138b <eye4D>:
  40138b:	55                   	push   %rbp
  40138c:	48 89 e5             	mov    %rsp,%rbp
  40138f:	48 89 7d f8          	mov    %rdi,-0x8(%rbp)
  401393:	48 8b 45 f8          	mov    -0x8(%rbp),%rax
  401397:	f3 0f 10 05 91 71 00 	movss  0x7191(%rip),%xmm0        # 408530 <_IO_stdin_used+0x60>
  40139e:	00 
  40139f:	f3 0f 11 00          	movss  %xmm0,(%rax)
  4013a3:	48 8b 45 f8          	mov    -0x8(%rbp),%rax
  4013a7:	48 83 c0 10          	add    $0x10,%rax
  4013ab:	f3 0f 10 05 7d 71 00 	movss  0x717d(%rip),%xmm0        # 408530 <_IO_stdin_used+0x60>
  4013b2:	00 
  4013b3:	f3 0f 11 40 04       	movss  %xmm0,0x4(%rax)
  4013b8:	48 8b 45 f8          	mov    -0x8(%rbp),%rax
  4013bc:	48 83 c0 20          	add    $0x20,%rax
  4013c0:	f3 0f 10 05 68 71 00 	movss  0x7168(%rip),%xmm0        # 408530 <_IO_stdin_used+0x60>
  4013c7:	00 
  4013c8:	f3 0f 11 40 08       	movss  %xmm0,0x8(%rax)
  4013cd:	48 8b 45 f8          	mov    -0x8(%rbp),%rax
  4013d1:	48 83 c0 30          	add    $0x30,%rax
  4013d5:	f3 0f 10 05 53 71 00 	movss  0x7153(%rip),%xmm0        # 408530 <_IO_stdin_used+0x60>
  4013dc:	00 
  4013dd:	f3 0f 11 40 0c       	movss  %xmm0,0xc(%rax)
  4013e2:	90                   	nop
  4013e3:	5d                   	pop    %rbp
  4013e4:	c3                   	retq   

00000000004013e5 <trans2quat>:
  4013e5:	55                   	push   %rbp
  4013e6:	48 89 e5             	mov    %rsp,%rbp
  4013e9:	48 83 ec 20          	sub    $0x20,%rsp
  4013ed:	48 89 7d e8          	mov    %rdi,-0x18(%rbp)
  4013f1:	48 89 75 e0          	mov    %rsi,-0x20(%rbp)
  4013f5:	48 8b 45 e8          	mov    -0x18(%rbp),%rax
  4013f9:	f3 0f 10 08          	movss  (%rax),%xmm1
  4013fd:	f3 0f 10 05 2b 71 00 	movss  0x712b(%rip),%xmm0        # 408530 <_IO_stdin_used+0x60>
  401404:	00 
  401405:	f3 0f 58 c1          	addss  %xmm1,%xmm0
  401409:	48 8b 45 e8          	mov    -0x18(%rbp),%rax
  40140d:	48 83 c0 10          	add    $0x10,%rax
  401411:	f3 0f 10 48 04       	movss  0x4(%rax),%xmm1
  401416:	f3 0f 58 c1          	addss  %xmm1,%xmm0
  40141a:	48 8b 45 e8          	mov    -0x18(%rbp),%rax
  40141e:	48 83 c0 20          	add    $0x20,%rax
  401422:	f3 0f 10 48 08       	movss  0x8(%rax),%xmm1
  401427:	f3 0f 58 c1          	addss  %xmm1,%xmm0
  40142b:	f3 0f 5a c0          	cvtss2sd %xmm0,%xmm0
  40142f:	e8 7c fd ff ff       	callq  4011b0 <sqrt@plt>
  401434:	66 0f 28 c8          	movapd %xmm0,%xmm1
  401438:	f2 0f 10 05 f8 70 00 	movsd  0x70f8(%rip),%xmm0        # 408538 <_IO_stdin_used+0x68>
  40143f:	00 
  401440:	f2 0f 5e c8          	divsd  %xmm0,%xmm1
  401444:	66 0f 28 c1          	movapd %xmm1,%xmm0
  401448:	f2 0f 5a c0          	cvtsd2ss %xmm0,%xmm0
  40144c:	48 8b 45 e0          	mov    -0x20(%rbp),%rax
  401450:	f3 0f 11 00          	movss  %xmm0,(%rax)
  401454:	48 8b 45 e0          	mov    -0x20(%rbp),%rax
  401458:	f3 0f 10 08          	movss  (%rax),%xmm1
  40145c:	f3 0f 10 05 dc 70 00 	movss  0x70dc(%rip),%xmm0        # 408540 <_IO_stdin_used+0x70>
  401463:	00 
  401464:	f3 0f 59 c1          	mulss  %xmm1,%xmm0
  401468:	f3 0f 11 45 fc       	movss  %xmm0,-0x4(%rbp)
  40146d:	48 8b 45 e8          	mov    -0x18(%rbp),%rax
  401471:	48 83 c0 20          	add    $0x20,%rax
  401475:	f3 0f 10 40 04       	movss  0x4(%rax),%xmm0
  40147a:	48 8b 45 e8          	mov    -0x18(%rbp),%rax
  40147e:	48 83 c0 10          	add    $0x10,%rax
  401482:	f3 0f 10 48 08       	movss  0x8(%rax),%xmm1
  401487:	f3 0f 5c c1          	subss  %xmm1,%xmm0
  40148b:	f3 0f 5e 45 fc       	divss  -0x4(%rbp),%xmm0
  401490:	48 8b 45 e0          	mov    -0x20(%rbp),%rax
  401494:	f3 0f 11 40 04       	movss  %xmm0,0x4(%rax)
  401499:	48 8b 45 e8          	mov    -0x18(%rbp),%rax
  40149d:	f3 0f 10 40 08       	movss  0x8(%rax),%xmm0
  4014a2:	48 8b 45 e8          	mov    -0x18(%rbp),%rax
  4014a6:	48 83 c0 20          	add    $0x20,%rax
  4014aa:	f3 0f 10 08          	movss  (%rax),%xmm1
  4014ae:	f3 0f 5c c1          	subss  %xmm1,%xmm0
  4014b2:	f3 0f 5e 45 fc       	divss  -0x4(%rbp),%xmm0
  4014b7:	48 8b 45 e0          	mov    -0x20(%rbp),%rax
  4014bb:	f3 0f 11 40 08       	movss  %xmm0,0x8(%rax)
  4014c0:	48 8b 45 e8          	mov    -0x18(%rbp),%rax
  4014c4:	48 83 c0 10          	add    $0x10,%rax
  4014c8:	f3 0f 10 00          	movss  (%rax),%xmm0
  4014cc:	48 8b 45 e8          	mov    -0x18(%rbp),%rax
  4014d0:	f3 0f 10 48 04       	movss  0x4(%rax),%xmm1
  4014d5:	f3 0f 5c c1          	subss  %xmm1,%xmm0
  4014d9:	f3 0f 5e 45 fc       	divss  -0x4(%rbp),%xmm0
  4014de:	48 8b 45 e0          	mov    -0x20(%rbp),%rax
  4014e2:	f3 0f 11 40 0c       	movss  %xmm0,0xc(%rax)
  4014e7:	90                   	nop
  4014e8:	c9                   	leaveq 
  4014e9:	c3                   	retq   

00000000004014ea <printQuat>:
  4014ea:	55                   	push   %rbp
  4014eb:	48 89 e5             	mov    %rsp,%rbp
  4014ee:	48 83 ec 10          	sub    $0x10,%rsp
  4014f2:	66 48 0f 7e c0       	movq   %xmm0,%rax
  4014f7:	66 48 0f 7e c9       	movq   %xmm1,%rcx
  4014fc:	48 89 ca             	mov    %rcx,%rdx
  4014ff:	48 89 45 f0          	mov    %rax,-0x10(%rbp)
  401503:	48 89 55 f8          	mov    %rdx,-0x8(%rbp)
  401507:	f3 0f 10 45 fc       	movss  -0x4(%rbp),%xmm0
  40150c:	f3 0f 5a d8          	cvtss2sd %xmm0,%xmm3
  401510:	f3 0f 10 45 f8       	movss  -0x8(%rbp),%xmm0
  401515:	f3 0f 5a d0          	cvtss2sd %xmm0,%xmm2
  401519:	f3 0f 10 45 f4       	movss  -0xc(%rbp),%xmm0
  40151e:	f3 0f 5a c8          	cvtss2sd %xmm0,%xmm1
  401522:	f3 0f 10 45 f0       	movss  -0x10(%rbp),%xmm0
  401527:	f3 0f 5a c0          	cvtss2sd %xmm0,%xmm0
  40152b:	bf e5 84 40 00       	mov    $0x4084e5,%edi
  401530:	b8 04 00 00 00       	mov    $0x4,%eax
  401535:	e8 16 fc ff ff       	callq  401150 <printf@plt>
  40153a:	90                   	nop
  40153b:	c9                   	leaveq 
  40153c:	c3                   	retq   

000000000040153d <main>:
  40153d:	55                   	push   %rbp
  40153e:	48 89 e5             	mov    %rsp,%rbp
  401541:	48 81 ec d0 1f 00 00 	sub    $0x1fd0,%rsp
  401548:	64 48 8b 04 25 28 00 	mov    %fs:0x28,%rax
  40154f:	00 00 
  401551:	48 89 45 f8          	mov    %rax,-0x8(%rbp)
  401555:	31 c0                	xor    %eax,%eax
  401557:	48 8d 95 70 e0 ff ff 	lea    -0x1f90(%rbp),%rdx
  40155e:	b8 00 00 00 00       	mov    $0x0,%eax
  401563:	b9 08 00 00 00       	mov    $0x8,%ecx
  401568:	48 89 d7             	mov    %rdx,%rdi
  40156b:	f3 48 ab             	rep stos %rax,%es:(%rdi)
  40156e:	48 8d 85 70 e0 ff ff 	lea    -0x1f90(%rbp),%rax
  401575:	48 89 c7             	mov    %rax,%rdi
  401578:	e8 0e fe ff ff       	callq  40138b <eye4D>
  40157d:	f3 0f 10 05 bf 6f 00 	movss  0x6fbf(%rip),%xmm0        # 408544 <_IO_stdin_used+0x74>
  401584:	00 
  401585:	f3 0f 11 85 9c e0 ff 	movss  %xmm0,-0x1f64(%rbp)
  40158c:	ff 
  40158d:	48 8d 85 48 e0 ff ff 	lea    -0x1fb8(%rbp),%rax
  401594:	48 89 c7             	mov    %rax,%rdi
  401597:	e8 75 24 00 00       	callq  403a11 <loadSTL>
  40159c:	89 85 40 e0 ff ff    	mov    %eax,-0x1fc0(%rbp)
  4015a2:	48 8b 85 48 e0 ff ff 	mov    -0x1fb8(%rbp),%rax
  4015a9:	8b 95 40 e0 ff ff    	mov    -0x1fc0(%rbp),%edx
  4015af:	89 d6                	mov    %edx,%esi
  4015b1:	48 89 c7             	mov    %rax,%rdi
  4015b4:	e8 c1 1e 00 00       	callq  40347a <initTree>
  4015b9:	48 89 85 50 e0 ff ff 	mov    %rax,-0x1fb0(%rbp)
  4015c0:	be 02 85 40 00       	mov    $0x408502,%esi
  4015c5:	bf 08 85 40 00       	mov    $0x408508,%edi
  4015ca:	e8 c1 fb ff ff       	callq  401190 <fopen@plt>
  4015cf:	48 89 85 58 e0 ff ff 	mov    %rax,-0x1fa8(%rbp)
  4015d6:	48 8b 95 58 e0 ff ff 	mov    -0x1fa8(%rbp),%rdx
  4015dd:	48 8d 85 b0 e0 ff ff 	lea    -0x1f50(%rbp),%rax
  4015e4:	48 89 d6             	mov    %rdx,%rsi
  4015e7:	48 89 c7             	mov    %rax,%rdi
  4015ea:	e8 d7 fc ff ff       	callq  4012c6 <readFrame>
  4015ef:	89 85 44 e0 ff ff    	mov    %eax,-0x1fbc(%rbp)
  4015f5:	8b 8d 44 e0 ff ff    	mov    -0x1fbc(%rbp),%ecx
  4015fb:	48 8d 95 70 e0 ff ff 	lea    -0x1f90(%rbp),%rdx
  401602:	48 8b b5 50 e0 ff ff 	mov    -0x1fb0(%rbp),%rsi
  401609:	48 8d 85 b0 e0 ff ff 	lea    -0x1f50(%rbp),%rax
  401610:	48 89 c7             	mov    %rax,%rdi
  401613:	e8 5d 3d 00 00       	callq  405375 <icp>
  401618:	48 8d 95 60 e0 ff ff 	lea    -0x1fa0(%rbp),%rdx
  40161f:	48 8d 85 70 e0 ff ff 	lea    -0x1f90(%rbp),%rax
  401626:	48 89 d6             	mov    %rdx,%rsi
  401629:	48 89 c7             	mov    %rax,%rdi
  40162c:	e8 b4 fd ff ff       	callq  4013e5 <trans2quat>
  401631:	48 8b 95 60 e0 ff ff 	mov    -0x1fa0(%rbp),%rdx
  401638:	48 8b 85 68 e0 ff ff 	mov    -0x1f98(%rbp),%rax
  40163f:	48 89 95 38 e0 ff ff 	mov    %rdx,-0x1fc8(%rbp)
  401646:	f3 0f 7e 85 38 e0 ff 	movq   -0x1fc8(%rbp),%xmm0
  40164d:	ff 
  40164e:	48 89 85 38 e0 ff ff 	mov    %rax,-0x1fc8(%rbp)
  401655:	f3 0f 7e 8d 38 e0 ff 	movq   -0x1fc8(%rbp),%xmm1
  40165c:	ff 
  40165d:	e8 88 fe ff ff       	callq  4014ea <printQuat>
  401662:	48 8b 85 48 e0 ff ff 	mov    -0x1fb8(%rbp),%rax
  401669:	48 89 c7             	mov    %rax,%rdi
  40166c:	e8 e1 2a 00 00       	callq  404152 <freeModel>
  401671:	48 8b 85 50 e0 ff ff 	mov    -0x1fb0(%rbp),%rax
  401678:	be 00 00 00 00       	mov    $0x0,%esi
  40167d:	48 89 c7             	mov    %rax,%rdi
  401680:	e8 0c 23 00 00       	callq  403991 <deleteTree>
  401685:	90                   	nop
  401686:	48 8b 45 f8          	mov    -0x8(%rbp),%rax
  40168a:	64 48 33 04 25 28 00 	xor    %fs:0x28,%rax
  401691:	00 00 
  401693:	74 05                	je     40169a <main+0x15d>
  401695:	e8 a6 fa ff ff       	callq  401140 <__stack_chk_fail@plt>
  40169a:	c9                   	leaveq 
  40169b:	c3                   	retq   

000000000040169c <dot3D>:
  40169c:	55                   	push   %rbp
  40169d:	48 89 e5             	mov    %rsp,%rbp
  4016a0:	48 89 7d f8          	mov    %rdi,-0x8(%rbp)
  4016a4:	48 89 75 f0          	mov    %rsi,-0x10(%rbp)
  4016a8:	48 8b 45 f8          	mov    -0x8(%rbp),%rax
  4016ac:	f3 0f 10 08          	movss  (%rax),%xmm1
  4016b0:	48 8b 45 f0          	mov    -0x10(%rbp),%rax
  4016b4:	f3 0f 10 00          	movss  (%rax),%xmm0
  4016b8:	f3 0f 59 c8          	mulss  %xmm0,%xmm1
  4016bc:	48 8b 45 f8          	mov    -0x8(%rbp),%rax
  4016c0:	48 83 c0 04          	add    $0x4,%rax
  4016c4:	f3 0f 10 10          	movss  (%rax),%xmm2
  4016c8:	48 8b 45 f0          	mov    -0x10(%rbp),%rax
  4016cc:	48 83 c0 04          	add    $0x4,%rax
  4016d0:	f3 0f 10 00          	movss  (%rax),%xmm0
  4016d4:	f3 0f 59 c2          	mulss  %xmm2,%xmm0
  4016d8:	f3 0f 58 c8          	addss  %xmm0,%xmm1
  4016dc:	48 8b 45 f8          	mov    -0x8(%rbp),%rax
  4016e0:	48 83 c0 08          	add    $0x8,%rax
  4016e4:	f3 0f 10 10          	movss  (%rax),%xmm2
  4016e8:	48 8b 45 f0          	mov    -0x10(%rbp),%rax
  4016ec:	48 83 c0 08          	add    $0x8,%rax
  4016f0:	f3 0f 10 00          	movss  (%rax),%xmm0
  4016f4:	f3 0f 59 c2          	mulss  %xmm2,%xmm0
  4016f8:	f3 0f 58 c1          	addss  %xmm1,%xmm0
  4016fc:	5d                   	pop    %rbp
  4016fd:	c3                   	retq   

00000000004016fe <sub3D>:
  4016fe:	55                   	push   %rbp
  4016ff:	48 89 e5             	mov    %rsp,%rbp
  401702:	48 89 7d f8          	mov    %rdi,-0x8(%rbp)
  401706:	48 89 75 f0          	mov    %rsi,-0x10(%rbp)
  40170a:	48 89 55 e8          	mov    %rdx,-0x18(%rbp)
  40170e:	48 8b 45 f8          	mov    -0x8(%rbp),%rax
  401712:	f3 0f 10 00          	movss  (%rax),%xmm0
  401716:	48 8b 45 f0          	mov    -0x10(%rbp),%rax
  40171a:	f3 0f 10 08          	movss  (%rax),%xmm1
  40171e:	f3 0f 5c c1          	subss  %xmm1,%xmm0
  401722:	48 8b 45 e8          	mov    -0x18(%rbp),%rax
  401726:	f3 0f 11 00          	movss  %xmm0,(%rax)
  40172a:	48 8b 45 e8          	mov    -0x18(%rbp),%rax
  40172e:	48 83 c0 04          	add    $0x4,%rax
  401732:	48 8b 55 f8          	mov    -0x8(%rbp),%rdx
  401736:	48 83 c2 04          	add    $0x4,%rdx
  40173a:	f3 0f 10 02          	movss  (%rdx),%xmm0
  40173e:	48 8b 55 f0          	mov    -0x10(%rbp),%rdx
  401742:	48 83 c2 04          	add    $0x4,%rdx
  401746:	f3 0f 10 0a          	movss  (%rdx),%xmm1
  40174a:	f3 0f 5c c1          	subss  %xmm1,%xmm0
  40174e:	f3 0f 11 00          	movss  %xmm0,(%rax)
  401752:	48 8b 45 e8          	mov    -0x18(%rbp),%rax
  401756:	48 83 c0 08          	add    $0x8,%rax
  40175a:	48 8b 55 f8          	mov    -0x8(%rbp),%rdx
  40175e:	48 83 c2 08          	add    $0x8,%rdx
  401762:	f3 0f 10 02          	movss  (%rdx),%xmm0
  401766:	48 8b 55 f0          	mov    -0x10(%rbp),%rdx
  40176a:	48 83 c2 08          	add    $0x8,%rdx
  40176e:	f3 0f 10 0a          	movss  (%rdx),%xmm1
  401772:	f3 0f 5c c1          	subss  %xmm1,%xmm0
  401776:	f3 0f 11 00          	movss  %xmm0,(%rax)
  40177a:	90                   	nop
  40177b:	5d                   	pop    %rbp
  40177c:	c3                   	retq   

000000000040177d <add3D>:
  40177d:	55                   	push   %rbp
  40177e:	48 89 e5             	mov    %rsp,%rbp
  401781:	48 89 7d f8          	mov    %rdi,-0x8(%rbp)
  401785:	48 89 75 f0          	mov    %rsi,-0x10(%rbp)
  401789:	48 89 55 e8          	mov    %rdx,-0x18(%rbp)
  40178d:	48 8b 45 f8          	mov    -0x8(%rbp),%rax
  401791:	f3 0f 10 08          	movss  (%rax),%xmm1
  401795:	48 8b 45 f0          	mov    -0x10(%rbp),%rax
  401799:	f3 0f 10 00          	movss  (%rax),%xmm0
  40179d:	f3 0f 58 c1          	addss  %xmm1,%xmm0
  4017a1:	48 8b 45 e8          	mov    -0x18(%rbp),%rax
  4017a5:	f3 0f 11 00          	movss  %xmm0,(%rax)
  4017a9:	48 8b 45 e8          	mov    -0x18(%rbp),%rax
  4017ad:	48 83 c0 04          	add    $0x4,%rax
  4017b1:	48 8b 55 f8          	mov    -0x8(%rbp),%rdx
  4017b5:	48 83 c2 04          	add    $0x4,%rdx
  4017b9:	f3 0f 10 0a          	movss  (%rdx),%xmm1
  4017bd:	48 8b 55 f0          	mov    -0x10(%rbp),%rdx
  4017c1:	48 83 c2 04          	add    $0x4,%rdx
  4017c5:	f3 0f 10 02          	movss  (%rdx),%xmm0
  4017c9:	f3 0f 58 c1          	addss  %xmm1,%xmm0
  4017cd:	f3 0f 11 00          	movss  %xmm0,(%rax)
  4017d1:	48 8b 45 e8          	mov    -0x18(%rbp),%rax
  4017d5:	48 83 c0 08          	add    $0x8,%rax
  4017d9:	48 8b 55 f8          	mov    -0x8(%rbp),%rdx
  4017dd:	48 83 c2 08          	add    $0x8,%rdx
  4017e1:	f3 0f 10 0a          	movss  (%rdx),%xmm1
  4017e5:	48 8b 55 f0          	mov    -0x10(%rbp),%rdx
  4017e9:	48 83 c2 08          	add    $0x8,%rdx
  4017ed:	f3 0f 10 02          	movss  (%rdx),%xmm0
  4017f1:	f3 0f 58 c1          	addss  %xmm1,%xmm0
  4017f5:	f3 0f 11 00          	movss  %xmm0,(%rax)
  4017f9:	90                   	nop
  4017fa:	5d                   	pop    %rbp
  4017fb:	c3                   	retq   

00000000004017fc <scalarMul3D>:
  4017fc:	55                   	push   %rbp
  4017fd:	48 89 e5             	mov    %rsp,%rbp
  401800:	f3 0f 11 45 fc       	movss  %xmm0,-0x4(%rbp)
  401805:	48 89 7d f0          	mov    %rdi,-0x10(%rbp)
  401809:	48 8b 45 f0          	mov    -0x10(%rbp),%rax
  40180d:	f3 0f 10 00          	movss  (%rax),%xmm0
  401811:	f3 0f 59 45 fc       	mulss  -0x4(%rbp),%xmm0
  401816:	48 8b 45 f0          	mov    -0x10(%rbp),%rax
  40181a:	f3 0f 11 00          	movss  %xmm0,(%rax)
  40181e:	48 8b 45 f0          	mov    -0x10(%rbp),%rax
  401822:	48 83 c0 04          	add    $0x4,%rax
  401826:	48 8b 55 f0          	mov    -0x10(%rbp),%rdx
  40182a:	48 83 c2 04          	add    $0x4,%rdx
  40182e:	f3 0f 10 02          	movss  (%rdx),%xmm0
  401832:	f3 0f 59 45 fc       	mulss  -0x4(%rbp),%xmm0
  401837:	f3 0f 11 00          	movss  %xmm0,(%rax)
  40183b:	48 8b 45 f0          	mov    -0x10(%rbp),%rax
  40183f:	48 83 c0 08          	add    $0x8,%rax
  401843:	48 8b 55 f0          	mov    -0x10(%rbp),%rdx
  401847:	48 83 c2 08          	add    $0x8,%rdx
  40184b:	f3 0f 10 02          	movss  (%rdx),%xmm0
  40184f:	f3 0f 59 45 fc       	mulss  -0x4(%rbp),%xmm0
  401854:	f3 0f 11 00          	movss  %xmm0,(%rax)
  401858:	90                   	nop
  401859:	5d                   	pop    %rbp
  40185a:	c3                   	retq   

000000000040185b <triangleDist>:
  40185b:	55                   	push   %rbp
  40185c:	48 89 e5             	mov    %rsp,%rbp
  40185f:	48 81 ec c0 00 00 00 	sub    $0xc0,%rsp
  401866:	48 89 bd 58 ff ff ff 	mov    %rdi,-0xa8(%rbp)
  40186d:	48 89 b5 50 ff ff ff 	mov    %rsi,-0xb0(%rbp)
  401874:	48 89 95 48 ff ff ff 	mov    %rdx,-0xb8(%rbp)
  40187b:	64 48 8b 04 25 28 00 	mov    %fs:0x28,%rax
  401882:	00 00 
  401884:	48 89 45 f8          	mov    %rax,-0x8(%rbp)
  401888:	31 c0                	xor    %eax,%eax
  40188a:	f3 0f 10 45 10       	movss  0x10(%rbp),%xmm0
  40188f:	f3 0f 11 45 a0       	movss  %xmm0,-0x60(%rbp)
  401894:	f3 0f 10 45 14       	movss  0x14(%rbp),%xmm0
  401899:	f3 0f 11 45 a4       	movss  %xmm0,-0x5c(%rbp)
  40189e:	f3 0f 10 45 18       	movss  0x18(%rbp),%xmm0
  4018a3:	f3 0f 11 45 a8       	movss  %xmm0,-0x58(%rbp)
  4018a8:	f3 0f 10 45 1c       	movss  0x1c(%rbp),%xmm0
  4018ad:	f3 0f 10 4d a0       	movss  -0x60(%rbp),%xmm1
  4018b2:	f3 0f 5c c1          	subss  %xmm1,%xmm0
  4018b6:	f3 0f 11 45 b0       	movss  %xmm0,-0x50(%rbp)
  4018bb:	f3 0f 10 45 20       	movss  0x20(%rbp),%xmm0
  4018c0:	f3 0f 10 4d a0       	movss  -0x60(%rbp),%xmm1
  4018c5:	f3 0f 5c c1          	subss  %xmm1,%xmm0
  4018c9:	f3 0f 11 45 b4       	movss  %xmm0,-0x4c(%rbp)
  4018ce:	f3 0f 10 45 24       	movss  0x24(%rbp),%xmm0
  4018d3:	f3 0f 10 4d a0       	movss  -0x60(%rbp),%xmm1
  4018d8:	f3 0f 5c c1          	subss  %xmm1,%xmm0
  4018dc:	f3 0f 11 45 b8       	movss  %xmm0,-0x48(%rbp)
  4018e1:	f3 0f 10 45 28       	movss  0x28(%rbp),%xmm0
  4018e6:	f3 0f 10 4d a0       	movss  -0x60(%rbp),%xmm1
  4018eb:	f3 0f 5c c1          	subss  %xmm1,%xmm0
  4018ef:	f3 0f 11 45 c0       	movss  %xmm0,-0x40(%rbp)
  4018f4:	f3 0f 10 45 2c       	movss  0x2c(%rbp),%xmm0
  4018f9:	f3 0f 10 4d a0       	movss  -0x60(%rbp),%xmm1
  4018fe:	f3 0f 5c c1          	subss  %xmm1,%xmm0
  401902:	f3 0f 11 45 c4       	movss  %xmm0,-0x3c(%rbp)
  401907:	f3 0f 10 45 30       	movss  0x30(%rbp),%xmm0
  40190c:	f3 0f 10 4d a0       	movss  -0x60(%rbp),%xmm1
  401911:	f3 0f 5c c1          	subss  %xmm1,%xmm0
  401915:	f3 0f 11 45 c8       	movss  %xmm0,-0x38(%rbp)
  40191a:	48 8d 55 d0          	lea    -0x30(%rbp),%rdx
  40191e:	48 8b 8d 58 ff ff ff 	mov    -0xa8(%rbp),%rcx
  401925:	48 8d 45 a0          	lea    -0x60(%rbp),%rax
  401929:	48 89 ce             	mov    %rcx,%rsi
  40192c:	48 89 c7             	mov    %rax,%rdi
  40192f:	e8 ca fd ff ff       	callq  4016fe <sub3D>
  401934:	48 8d 55 b0          	lea    -0x50(%rbp),%rdx
  401938:	48 8d 45 b0          	lea    -0x50(%rbp),%rax
  40193c:	48 89 d6             	mov    %rdx,%rsi
  40193f:	48 89 c7             	mov    %rax,%rdi
  401942:	e8 55 fd ff ff       	callq  40169c <dot3D>
  401947:	66 0f 7e c0          	movd   %xmm0,%eax
  40194b:	89 85 70 ff ff ff    	mov    %eax,-0x90(%rbp)
  401951:	48 8d 55 c0          	lea    -0x40(%rbp),%rdx
  401955:	48 8d 45 b0          	lea    -0x50(%rbp),%rax
  401959:	48 89 d6             	mov    %rdx,%rsi
  40195c:	48 89 c7             	mov    %rax,%rdi
  40195f:	e8 38 fd ff ff       	callq  40169c <dot3D>
  401964:	66 0f 7e c0          	movd   %xmm0,%eax
  401968:	89 85 74 ff ff ff    	mov    %eax,-0x8c(%rbp)
  40196e:	48 8d 55 c0          	lea    -0x40(%rbp),%rdx
  401972:	48 8d 45 c0          	lea    -0x40(%rbp),%rax
  401976:	48 89 d6             	mov    %rdx,%rsi
  401979:	48 89 c7             	mov    %rax,%rdi
  40197c:	e8 1b fd ff ff       	callq  40169c <dot3D>
  401981:	66 0f 7e c0          	movd   %xmm0,%eax
  401985:	89 85 78 ff ff ff    	mov    %eax,-0x88(%rbp)
  40198b:	48 8d 55 d0          	lea    -0x30(%rbp),%rdx
  40198f:	48 8d 45 b0          	lea    -0x50(%rbp),%rax
  401993:	48 89 d6             	mov    %rdx,%rsi
  401996:	48 89 c7             	mov    %rax,%rdi
  401999:	e8 fe fc ff ff       	callq  40169c <dot3D>
  40199e:	66 0f 7e c0          	movd   %xmm0,%eax
  4019a2:	89 85 7c ff ff ff    	mov    %eax,-0x84(%rbp)
  4019a8:	48 8d 55 d0          	lea    -0x30(%rbp),%rdx
  4019ac:	48 8d 45 c0          	lea    -0x40(%rbp),%rax
  4019b0:	48 89 d6             	mov    %rdx,%rsi
  4019b3:	48 89 c7             	mov    %rax,%rdi
  4019b6:	e8 e1 fc ff ff       	callq  40169c <dot3D>
  4019bb:	66 0f 7e c0          	movd   %xmm0,%eax
  4019bf:	89 45 80             	mov    %eax,-0x80(%rbp)
  4019c2:	48 8d 55 d0          	lea    -0x30(%rbp),%rdx
  4019c6:	48 8d 45 d0          	lea    -0x30(%rbp),%rax
  4019ca:	48 89 d6             	mov    %rdx,%rsi
  4019cd:	48 89 c7             	mov    %rax,%rdi
  4019d0:	e8 c7 fc ff ff       	callq  40169c <dot3D>
  4019d5:	66 0f 7e c0          	movd   %xmm0,%eax
  4019d9:	89 45 84             	mov    %eax,-0x7c(%rbp)
  4019dc:	f3 0f 10 85 70 ff ff 	movss  -0x90(%rbp),%xmm0
  4019e3:	ff 
  4019e4:	f3 0f 59 85 78 ff ff 	mulss  -0x88(%rbp),%xmm0
  4019eb:	ff 
  4019ec:	f3 0f 10 8d 74 ff ff 	movss  -0x8c(%rbp),%xmm1
  4019f3:	ff 
  4019f4:	f3 0f 59 8d 74 ff ff 	mulss  -0x8c(%rbp),%xmm1
  4019fb:	ff 
  4019fc:	f3 0f 5c c1          	subss  %xmm1,%xmm0
  401a00:	f3 0f 11 45 88       	movss  %xmm0,-0x78(%rbp)
  401a05:	f3 0f 10 85 74 ff ff 	movss  -0x8c(%rbp),%xmm0
  401a0c:	ff 
  401a0d:	f3 0f 59 45 80       	mulss  -0x80(%rbp),%xmm0
  401a12:	f3 0f 10 8d 78 ff ff 	movss  -0x88(%rbp),%xmm1
  401a19:	ff 
  401a1a:	f3 0f 59 8d 7c ff ff 	mulss  -0x84(%rbp),%xmm1
  401a21:	ff 
  401a22:	f3 0f 5c c1          	subss  %xmm1,%xmm0
  401a26:	f3 0f 11 85 68 ff ff 	movss  %xmm0,-0x98(%rbp)
  401a2d:	ff 
  401a2e:	f3 0f 10 85 74 ff ff 	movss  -0x8c(%rbp),%xmm0
  401a35:	ff 
  401a36:	f3 0f 59 85 7c ff ff 	mulss  -0x84(%rbp),%xmm0
  401a3d:	ff 
  401a3e:	f3 0f 10 8d 70 ff ff 	movss  -0x90(%rbp),%xmm1
  401a45:	ff 
  401a46:	f3 0f 59 4d 80       	mulss  -0x80(%rbp),%xmm1
  401a4b:	f3 0f 5c c1          	subss  %xmm1,%xmm0
  401a4f:	f3 0f 11 85 6c ff ff 	movss  %xmm0,-0x94(%rbp)
  401a56:	ff 
  401a57:	f3 0f 10 85 68 ff ff 	movss  -0x98(%rbp),%xmm0
  401a5e:	ff 
  401a5f:	f3 0f 58 85 6c ff ff 	addss  -0x94(%rbp),%xmm0
  401a66:	ff 
  401a67:	f3 0f 10 4d 88       	movss  -0x78(%rbp),%xmm1
  401a6c:	0f 2e c8             	ucomiss %xmm0,%xmm1
  401a6f:	72 4b                	jb     401abc <triangleDist+0x261>
  401a71:	66 0f ef c0          	pxor   %xmm0,%xmm0
  401a75:	0f 2e 85 68 ff ff ff 	ucomiss -0x98(%rbp),%xmm0
  401a7c:	76 1f                	jbe    401a9d <triangleDist+0x242>
  401a7e:	66 0f ef c0          	pxor   %xmm0,%xmm0
  401a82:	0f 2e 85 6c ff ff ff 	ucomiss -0x94(%rbp),%xmm0
  401a89:	76 09                	jbe    401a94 <triangleDist+0x239>
  401a8b:	c6 85 67 ff ff ff 04 	movb   $0x4,-0x99(%rbp)
  401a92:	eb 5b                	jmp    401aef <triangleDist+0x294>
  401a94:	c6 85 67 ff ff ff 03 	movb   $0x3,-0x99(%rbp)
  401a9b:	eb 52                	jmp    401aef <triangleDist+0x294>
  401a9d:	66 0f ef c0          	pxor   %xmm0,%xmm0
  401aa1:	0f 2e 85 6c ff ff ff 	ucomiss -0x94(%rbp),%xmm0
  401aa8:	76 09                	jbe    401ab3 <triangleDist+0x258>
  401aaa:	c6 85 67 ff ff ff 05 	movb   $0x5,-0x99(%rbp)
  401ab1:	eb 3c                	jmp    401aef <triangleDist+0x294>
  401ab3:	c6 85 67 ff ff ff 00 	movb   $0x0,-0x99(%rbp)
  401aba:	eb 33                	jmp    401aef <triangleDist+0x294>
  401abc:	66 0f ef c0          	pxor   %xmm0,%xmm0
  401ac0:	0f 2e 85 68 ff ff ff 	ucomiss -0x98(%rbp),%xmm0
  401ac7:	76 09                	jbe    401ad2 <triangleDist+0x277>
  401ac9:	c6 85 67 ff ff ff 02 	movb   $0x2,-0x99(%rbp)
  401ad0:	eb 1d                	jmp    401aef <triangleDist+0x294>
  401ad2:	66 0f ef c0          	pxor   %xmm0,%xmm0
  401ad6:	0f 2e 85 6c ff ff ff 	ucomiss -0x94(%rbp),%xmm0
  401add:	76 09                	jbe    401ae8 <triangleDist+0x28d>
  401adf:	c6 85 67 ff ff ff 06 	movb   $0x6,-0x99(%rbp)
  401ae6:	eb 07                	jmp    401aef <triangleDist+0x294>
  401ae8:	c6 85 67 ff ff ff 01 	movb   $0x1,-0x99(%rbp)
  401aef:	0f b6 85 67 ff ff ff 	movzbl -0x99(%rbp),%eax
  401af6:	83 f8 06             	cmp    $0x6,%eax
  401af9:	0f 87 79 0a 00 00    	ja     402578 <triangleDist+0xd1d>
  401aff:	89 c0                	mov    %eax,%eax
  401b01:	48 8b 04 c5 50 85 40 	mov    0x408550(,%rax,8),%rax
  401b08:	00 
  401b09:	ff e0                	jmpq   *%rax
  401b0b:	f3 0f 10 05 75 6a 00 	movss  0x6a75(%rip),%xmm0        # 408588 <_IO_stdin_used+0xb8>
  401b12:	00 
  401b13:	f3 0f 5e 45 88       	divss  -0x78(%rbp),%xmm0
  401b18:	f3 0f 11 45 8c       	movss  %xmm0,-0x74(%rbp)
  401b1d:	f3 0f 10 85 68 ff ff 	movss  -0x98(%rbp),%xmm0
  401b24:	ff 
  401b25:	f3 0f 59 45 8c       	mulss  -0x74(%rbp),%xmm0
  401b2a:	f3 0f 11 85 68 ff ff 	movss  %xmm0,-0x98(%rbp)
  401b31:	ff 
  401b32:	f3 0f 10 85 6c ff ff 	movss  -0x94(%rbp),%xmm0
  401b39:	ff 
  401b3a:	f3 0f 59 45 8c       	mulss  -0x74(%rbp),%xmm0
  401b3f:	f3 0f 11 85 6c ff ff 	movss  %xmm0,-0x94(%rbp)
  401b46:	ff 
  401b47:	f3 0f 10 85 70 ff ff 	movss  -0x90(%rbp),%xmm0
  401b4e:	ff 
  401b4f:	0f 28 c8             	movaps %xmm0,%xmm1
  401b52:	f3 0f 59 8d 68 ff ff 	mulss  -0x98(%rbp),%xmm1
  401b59:	ff 
  401b5a:	f3 0f 10 85 74 ff ff 	movss  -0x8c(%rbp),%xmm0
  401b61:	ff 
  401b62:	f3 0f 59 85 6c ff ff 	mulss  -0x94(%rbp),%xmm0
  401b69:	ff 
  401b6a:	f3 0f 58 c8          	addss  %xmm0,%xmm1
  401b6e:	f3 0f 10 85 7c ff ff 	movss  -0x84(%rbp),%xmm0
  401b75:	ff 
  401b76:	f3 0f 58 c0          	addss  %xmm0,%xmm0
  401b7a:	f3 0f 58 c1          	addss  %xmm1,%xmm0
  401b7e:	0f 28 c8             	movaps %xmm0,%xmm1
  401b81:	f3 0f 59 8d 68 ff ff 	mulss  -0x98(%rbp),%xmm1
  401b88:	ff 
  401b89:	f3 0f 10 85 74 ff ff 	movss  -0x8c(%rbp),%xmm0
  401b90:	ff 
  401b91:	0f 28 d0             	movaps %xmm0,%xmm2
  401b94:	f3 0f 59 95 68 ff ff 	mulss  -0x98(%rbp),%xmm2
  401b9b:	ff 
  401b9c:	f3 0f 10 85 78 ff ff 	movss  -0x88(%rbp),%xmm0
  401ba3:	ff 
  401ba4:	f3 0f 59 85 6c ff ff 	mulss  -0x94(%rbp),%xmm0
  401bab:	ff 
  401bac:	f3 0f 58 d0          	addss  %xmm0,%xmm2
  401bb0:	f3 0f 10 45 80       	movss  -0x80(%rbp),%xmm0
  401bb5:	f3 0f 58 c0          	addss  %xmm0,%xmm0
  401bb9:	f3 0f 58 c2          	addss  %xmm2,%xmm0
  401bbd:	f3 0f 59 85 6c ff ff 	mulss  -0x94(%rbp),%xmm0
  401bc4:	ff 
  401bc5:	f3 0f 58 c1          	addss  %xmm1,%xmm0
  401bc9:	f3 0f 58 45 84       	addss  -0x7c(%rbp),%xmm0
  401bce:	48 8b 85 50 ff ff ff 	mov    -0xb0(%rbp),%rax
  401bd5:	f3 0f 11 00          	movss  %xmm0,(%rax)
  401bd9:	f3 0f 10 85 78 ff ff 	movss  -0x88(%rbp),%xmm0
  401be0:	ff 
  401be1:	f3 0f 58 45 80       	addss  -0x80(%rbp),%xmm0
  401be6:	f3 0f 5c 85 74 ff ff 	subss  -0x8c(%rbp),%xmm0
  401bed:	ff 
  401bee:	f3 0f 5c 85 7c ff ff 	subss  -0x84(%rbp),%xmm0
  401bf5:	ff 
  401bf6:	f3 0f 11 45 90       	movss  %xmm0,-0x70(%rbp)
  401bfb:	66 0f ef c0          	pxor   %xmm0,%xmm0
  401bff:	0f 2e 45 90          	ucomiss -0x70(%rbp),%xmm0
  401c03:	72 42                	jb     401c47 <triangleDist+0x3ec>
  401c05:	66 0f ef c0          	pxor   %xmm0,%xmm0
  401c09:	f3 0f 11 85 68 ff ff 	movss  %xmm0,-0x98(%rbp)
  401c10:	ff 
  401c11:	f3 0f 10 05 6f 69 00 	movss  0x696f(%rip),%xmm0        # 408588 <_IO_stdin_used+0xb8>
  401c18:	00 
  401c19:	f3 0f 11 85 6c ff ff 	movss  %xmm0,-0x94(%rbp)
  401c20:	ff 
  401c21:	f3 0f 10 45 80       	movss  -0x80(%rbp),%xmm0
  401c26:	f3 0f 58 c0          	addss  %xmm0,%xmm0
  401c2a:	f3 0f 58 85 78 ff ff 	addss  -0x88(%rbp),%xmm0
  401c31:	ff 
  401c32:	f3 0f 58 45 84       	addss  -0x7c(%rbp),%xmm0
  401c37:	48 8b 85 50 ff ff ff 	mov    -0xb0(%rbp),%rax
  401c3e:	f3 0f 11 00          	movss  %xmm0,(%rax)
  401c42:	e9 34 01 00 00       	jmpq   401d7b <triangleDist+0x520>
  401c47:	f3 0f 10 85 74 ff ff 	movss  -0x8c(%rbp),%xmm0
  401c4e:	ff 
  401c4f:	f3 0f 58 c0          	addss  %xmm0,%xmm0
  401c53:	f3 0f 10 8d 70 ff ff 	movss  -0x90(%rbp),%xmm1
  401c5a:	ff 
  401c5b:	f3 0f 5c c8          	subss  %xmm0,%xmm1
  401c5f:	0f 28 c1             	movaps %xmm1,%xmm0
  401c62:	f3 0f 58 85 78 ff ff 	addss  -0x88(%rbp),%xmm0
  401c69:	ff 
  401c6a:	f3 0f 11 45 94       	movss  %xmm0,-0x6c(%rbp)
  401c6f:	f3 0f 10 45 90       	movss  -0x70(%rbp),%xmm0
  401c74:	0f 2e 45 94          	ucomiss -0x6c(%rbp),%xmm0
  401c78:	72 45                	jb     401cbf <triangleDist+0x464>
  401c7a:	f3 0f 10 05 06 69 00 	movss  0x6906(%rip),%xmm0        # 408588 <_IO_stdin_used+0xb8>
  401c81:	00 
  401c82:	f3 0f 11 85 68 ff ff 	movss  %xmm0,-0x98(%rbp)
  401c89:	ff 
  401c8a:	66 0f ef c0          	pxor   %xmm0,%xmm0
  401c8e:	f3 0f 11 85 6c ff ff 	movss  %xmm0,-0x94(%rbp)
  401c95:	ff 
  401c96:	f3 0f 10 85 7c ff ff 	movss  -0x84(%rbp),%xmm0
  401c9d:	ff 
  401c9e:	f3 0f 58 c0          	addss  %xmm0,%xmm0
  401ca2:	f3 0f 58 85 70 ff ff 	addss  -0x90(%rbp),%xmm0
  401ca9:	ff 
  401caa:	f3 0f 58 45 84       	addss  -0x7c(%rbp),%xmm0
  401caf:	48 8b 85 50 ff ff ff 	mov    -0xb0(%rbp),%rax
  401cb6:	f3 0f 11 00          	movss  %xmm0,(%rax)
  401cba:	e9 bc 00 00 00       	jmpq   401d7b <triangleDist+0x520>
  401cbf:	f3 0f 10 45 90       	movss  -0x70(%rbp),%xmm0
  401cc4:	f3 0f 5e 45 94       	divss  -0x6c(%rbp),%xmm0
  401cc9:	f3 0f 11 85 68 ff ff 	movss  %xmm0,-0x98(%rbp)
  401cd0:	ff 
  401cd1:	f3 0f 10 05 af 68 00 	movss  0x68af(%rip),%xmm0        # 408588 <_IO_stdin_used+0xb8>
  401cd8:	00 
  401cd9:	f3 0f 5c 85 68 ff ff 	subss  -0x98(%rbp),%xmm0
  401ce0:	ff 
  401ce1:	f3 0f 11 85 6c ff ff 	movss  %xmm0,-0x94(%rbp)
  401ce8:	ff 
  401ce9:	f3 0f 10 85 70 ff ff 	movss  -0x90(%rbp),%xmm0
  401cf0:	ff 
  401cf1:	0f 28 c8             	movaps %xmm0,%xmm1
  401cf4:	f3 0f 59 8d 68 ff ff 	mulss  -0x98(%rbp),%xmm1
  401cfb:	ff 
  401cfc:	f3 0f 10 85 74 ff ff 	movss  -0x8c(%rbp),%xmm0
  401d03:	ff 
  401d04:	f3 0f 59 85 6c ff ff 	mulss  -0x94(%rbp),%xmm0
  401d0b:	ff 
  401d0c:	f3 0f 58 c8          	addss  %xmm0,%xmm1
  401d10:	f3 0f 10 85 7c ff ff 	movss  -0x84(%rbp),%xmm0
  401d17:	ff 
  401d18:	f3 0f 58 c0          	addss  %xmm0,%xmm0
  401d1c:	f3 0f 58 c1          	addss  %xmm1,%xmm0
  401d20:	0f 28 c8             	movaps %xmm0,%xmm1
  401d23:	f3 0f 59 8d 68 ff ff 	mulss  -0x98(%rbp),%xmm1
  401d2a:	ff 
  401d2b:	f3 0f 10 85 74 ff ff 	movss  -0x8c(%rbp),%xmm0
  401d32:	ff 
  401d33:	0f 28 d0             	movaps %xmm0,%xmm2
  401d36:	f3 0f 59 95 68 ff ff 	mulss  -0x98(%rbp),%xmm2
  401d3d:	ff 
  401d3e:	f3 0f 10 85 78 ff ff 	movss  -0x88(%rbp),%xmm0
  401d45:	ff 
  401d46:	f3 0f 59 85 6c ff ff 	mulss  -0x94(%rbp),%xmm0
  401d4d:	ff 
  401d4e:	f3 0f 58 d0          	addss  %xmm0,%xmm2
  401d52:	f3 0f 10 45 80       	movss  -0x80(%rbp),%xmm0
  401d57:	f3 0f 58 c0          	addss  %xmm0,%xmm0
  401d5b:	f3 0f 58 c2          	addss  %xmm2,%xmm0
  401d5f:	f3 0f 59 85 6c ff ff 	mulss  -0x94(%rbp),%xmm0
  401d66:	ff 
  401d67:	f3 0f 58 c1          	addss  %xmm1,%xmm0
  401d6b:	f3 0f 58 45 84       	addss  -0x7c(%rbp),%xmm0
  401d70:	48 8b 85 50 ff ff ff 	mov    -0xb0(%rbp),%rax
  401d77:	f3 0f 11 00          	movss  %xmm0,(%rax)
  401d7b:	f3 0f 10 85 74 ff ff 	movss  -0x8c(%rbp),%xmm0
  401d82:	ff 
  401d83:	f3 0f 58 85 7c ff ff 	addss  -0x84(%rbp),%xmm0
  401d8a:	ff 
  401d8b:	f3 0f 11 45 98       	movss  %xmm0,-0x68(%rbp)
  401d90:	f3 0f 10 85 78 ff ff 	movss  -0x88(%rbp),%xmm0
  401d97:	ff 
  401d98:	f3 0f 58 45 80       	addss  -0x80(%rbp),%xmm0
  401d9d:	f3 0f 11 45 9c       	movss  %xmm0,-0x64(%rbp)
  401da2:	f3 0f 10 45 9c       	movss  -0x64(%rbp),%xmm0
  401da7:	0f 2e 45 98          	ucomiss -0x68(%rbp),%xmm0
  401dab:	0f 86 59 01 00 00    	jbe    401f0a <triangleDist+0x6af>
  401db1:	f3 0f 10 45 9c       	movss  -0x64(%rbp),%xmm0
  401db6:	f3 0f 5c 45 98       	subss  -0x68(%rbp),%xmm0
  401dbb:	f3 0f 11 45 90       	movss  %xmm0,-0x70(%rbp)
  401dc0:	f3 0f 5a 8d 70 ff ff 	cvtss2sd -0x90(%rbp),%xmm1
  401dc7:	ff 
  401dc8:	f3 0f 5a 85 74 ff ff 	cvtss2sd -0x8c(%rbp),%xmm0
  401dcf:	ff 
  401dd0:	f2 0f 58 c0          	addsd  %xmm0,%xmm0
  401dd4:	f2 0f 5c c8          	subsd  %xmm0,%xmm1
  401dd8:	f3 0f 5a 85 78 ff ff 	cvtss2sd -0x88(%rbp),%xmm0
  401ddf:	ff 
  401de0:	f2 0f 58 c1          	addsd  %xmm1,%xmm0
  401de4:	f2 0f 5a e0          	cvtsd2ss %xmm0,%xmm4
  401de8:	f3 0f 11 65 94       	movss  %xmm4,-0x6c(%rbp)
  401ded:	f3 0f 10 45 90       	movss  -0x70(%rbp),%xmm0
  401df2:	0f 2e 45 94          	ucomiss -0x6c(%rbp),%xmm0
  401df6:	72 51                	jb     401e49 <triangleDist+0x5ee>
  401df8:	f3 0f 10 05 88 67 00 	movss  0x6788(%rip),%xmm0        # 408588 <_IO_stdin_used+0xb8>
  401dff:	00 
  401e00:	f3 0f 11 85 68 ff ff 	movss  %xmm0,-0x98(%rbp)
  401e07:	ff 
  401e08:	66 0f ef c0          	pxor   %xmm0,%xmm0
  401e0c:	f3 0f 11 85 6c ff ff 	movss  %xmm0,-0x94(%rbp)
  401e13:	ff 
  401e14:	f3 0f 5a 8d 70 ff ff 	cvtss2sd -0x90(%rbp),%xmm1
  401e1b:	ff 
  401e1c:	f3 0f 5a 85 7c ff ff 	cvtss2sd -0x84(%rbp),%xmm0
  401e23:	ff 
  401e24:	f2 0f 58 c0          	addsd  %xmm0,%xmm0
  401e28:	f2 0f 58 c8          	addsd  %xmm0,%xmm1
  401e2c:	f3 0f 5a 45 84       	cvtss2sd -0x7c(%rbp),%xmm0
  401e31:	f2 0f 58 c1          	addsd  %xmm1,%xmm0
  401e35:	f2 0f 5a c0          	cvtsd2ss %xmm0,%xmm0
  401e39:	48 8b 85 50 ff ff ff 	mov    -0xb0(%rbp),%rax
  401e40:	f3 0f 11 00          	movss  %xmm0,(%rax)
  401e44:	e9 7f 01 00 00       	jmpq   401fc8 <triangleDist+0x76d>
  401e49:	f3 0f 10 45 90       	movss  -0x70(%rbp),%xmm0
  401e4e:	f3 0f 5e 45 94       	divss  -0x6c(%rbp),%xmm0
  401e53:	f3 0f 11 85 68 ff ff 	movss  %xmm0,-0x98(%rbp)
  401e5a:	ff 
  401e5b:	f3 0f 10 05 25 67 00 	movss  0x6725(%rip),%xmm0        # 408588 <_IO_stdin_used+0xb8>
  401e62:	00 
  401e63:	f3 0f 5c 85 68 ff ff 	subss  -0x98(%rbp),%xmm0
  401e6a:	ff 
  401e6b:	f3 0f 11 85 6c ff ff 	movss  %xmm0,-0x94(%rbp)
  401e72:	ff 
  401e73:	f3 0f 10 85 70 ff ff 	movss  -0x90(%rbp),%xmm0
  401e7a:	ff 
  401e7b:	0f 28 c8             	movaps %xmm0,%xmm1
  401e7e:	f3 0f 59 8d 68 ff ff 	mulss  -0x98(%rbp),%xmm1
  401e85:	ff 
  401e86:	f3 0f 10 85 74 ff ff 	movss  -0x8c(%rbp),%xmm0
  401e8d:	ff 
  401e8e:	f3 0f 59 85 6c ff ff 	mulss  -0x94(%rbp),%xmm0
  401e95:	ff 
  401e96:	f3 0f 58 c8          	addss  %xmm0,%xmm1
  401e9a:	f3 0f 10 85 7c ff ff 	movss  -0x84(%rbp),%xmm0
  401ea1:	ff 
  401ea2:	f3 0f 58 c0          	addss  %xmm0,%xmm0
  401ea6:	f3 0f 58 c1          	addss  %xmm1,%xmm0
  401eaa:	0f 28 c8             	movaps %xmm0,%xmm1
  401ead:	f3 0f 59 8d 68 ff ff 	mulss  -0x98(%rbp),%xmm1
  401eb4:	ff 
  401eb5:	f3 0f 10 85 74 ff ff 	movss  -0x8c(%rbp),%xmm0
  401ebc:	ff 
  401ebd:	0f 28 d0             	movaps %xmm0,%xmm2
  401ec0:	f3 0f 59 95 68 ff ff 	mulss  -0x98(%rbp),%xmm2
  401ec7:	ff 
  401ec8:	f3 0f 10 85 78 ff ff 	movss  -0x88(%rbp),%xmm0
  401ecf:	ff 
  401ed0:	f3 0f 59 85 6c ff ff 	mulss  -0x94(%rbp),%xmm0
  401ed7:	ff 
  401ed8:	f3 0f 58 d0          	addss  %xmm0,%xmm2
  401edc:	f3 0f 10 45 80       	movss  -0x80(%rbp),%xmm0
  401ee1:	f3 0f 58 c0          	addss  %xmm0,%xmm0
  401ee5:	f3 0f 58 c2          	addss  %xmm2,%xmm0
  401ee9:	f3 0f 59 85 6c ff ff 	mulss  -0x94(%rbp),%xmm0
  401ef0:	ff 
  401ef1:	f3 0f 58 c1          	addss  %xmm1,%xmm0
  401ef5:	f3 0f 58 45 84       	addss  -0x7c(%rbp),%xmm0
  401efa:	48 8b 85 50 ff ff ff 	mov    -0xb0(%rbp),%rax
  401f01:	f3 0f 11 00          	movss  %xmm0,(%rax)
  401f05:	e9 be 00 00 00       	jmpq   401fc8 <triangleDist+0x76d>
  401f0a:	66 0f ef c0          	pxor   %xmm0,%xmm0
  401f0e:	f3 0f 11 85 68 ff ff 	movss  %xmm0,-0x98(%rbp)
  401f15:	ff 
  401f16:	66 0f ef c0          	pxor   %xmm0,%xmm0
  401f1a:	0f 2e 45 9c          	ucomiss -0x64(%rbp),%xmm0
  401f1e:	72 3f                	jb     401f5f <triangleDist+0x704>
  401f20:	f3 0f 10 05 60 66 00 	movss  0x6660(%rip),%xmm0        # 408588 <_IO_stdin_used+0xb8>
  401f27:	00 
  401f28:	f3 0f 11 85 6c ff ff 	movss  %xmm0,-0x94(%rbp)
  401f2f:	ff 
  401f30:	f3 0f 5a 8d 78 ff ff 	cvtss2sd -0x88(%rbp),%xmm1
  401f37:	ff 
  401f38:	f3 0f 5a 45 80       	cvtss2sd -0x80(%rbp),%xmm0
  401f3d:	f2 0f 58 c0          	addsd  %xmm0,%xmm0
  401f41:	f2 0f 58 c8          	addsd  %xmm0,%xmm1
  401f45:	f3 0f 5a 45 84       	cvtss2sd -0x7c(%rbp),%xmm0
  401f4a:	f2 0f 58 c1          	addsd  %xmm1,%xmm0
  401f4e:	f2 0f 5a c0          	cvtsd2ss %xmm0,%xmm0
  401f52:	48 8b 85 50 ff ff ff 	mov    -0xb0(%rbp),%rax
  401f59:	f3 0f 11 00          	movss  %xmm0,(%rax)
  401f5d:	eb 69                	jmp    401fc8 <triangleDist+0x76d>
  401f5f:	f3 0f 10 45 80       	movss  -0x80(%rbp),%xmm0
  401f64:	66 0f ef c9          	pxor   %xmm1,%xmm1
  401f68:	0f 2e c1             	ucomiss %xmm1,%xmm0
  401f6b:	72 1e                	jb     401f8b <triangleDist+0x730>
  401f6d:	66 0f ef c0          	pxor   %xmm0,%xmm0
  401f71:	f3 0f 11 85 6c ff ff 	movss  %xmm0,-0x94(%rbp)
  401f78:	ff 
  401f79:	48 8b 85 50 ff ff ff 	mov    -0xb0(%rbp),%rax
  401f80:	f3 0f 10 45 84       	movss  -0x7c(%rbp),%xmm0
  401f85:	f3 0f 11 00          	movss  %xmm0,(%rax)
  401f89:	eb 3d                	jmp    401fc8 <triangleDist+0x76d>
  401f8b:	f3 0f 10 4d 80       	movss  -0x80(%rbp),%xmm1
  401f90:	f3 0f 10 05 f8 65 00 	movss  0x65f8(%rip),%xmm0        # 408590 <_IO_stdin_used+0xc0>
  401f97:	00 
  401f98:	0f 57 c1             	xorps  %xmm1,%xmm0
  401f9b:	f3 0f 5e 85 78 ff ff 	divss  -0x88(%rbp),%xmm0
  401fa2:	ff 
  401fa3:	f3 0f 11 85 6c ff ff 	movss  %xmm0,-0x94(%rbp)
  401faa:	ff 
  401fab:	f3 0f 10 45 80       	movss  -0x80(%rbp),%xmm0
  401fb0:	f3 0f 59 85 6c ff ff 	mulss  -0x94(%rbp),%xmm0
  401fb7:	ff 
  401fb8:	f3 0f 58 45 84       	addss  -0x7c(%rbp),%xmm0
  401fbd:	48 8b 85 50 ff ff ff 	mov    -0xb0(%rbp),%rax
  401fc4:	f3 0f 11 00          	movss  %xmm0,(%rax)
  401fc8:	66 0f ef c0          	pxor   %xmm0,%xmm0
  401fcc:	f3 0f 11 85 68 ff ff 	movss  %xmm0,-0x98(%rbp)
  401fd3:	ff 
  401fd4:	f3 0f 10 45 80       	movss  -0x80(%rbp),%xmm0
  401fd9:	66 0f ef c9          	pxor   %xmm1,%xmm1
  401fdd:	0f 2e c1             	ucomiss %xmm1,%xmm0
  401fe0:	72 21                	jb     402003 <triangleDist+0x7a8>
  401fe2:	66 0f ef c0          	pxor   %xmm0,%xmm0
  401fe6:	f3 0f 11 85 6c ff ff 	movss  %xmm0,-0x94(%rbp)
  401fed:	ff 
  401fee:	48 8b 85 50 ff ff ff 	mov    -0xb0(%rbp),%rax
  401ff5:	f3 0f 10 45 84       	movss  -0x7c(%rbp),%xmm0
  401ffa:	f3 0f 11 00          	movss  %xmm0,(%rax)
  401ffe:	e9 95 00 00 00       	jmpq   402098 <triangleDist+0x83d>
  402003:	f3 0f 10 4d 80       	movss  -0x80(%rbp),%xmm1
  402008:	f3 0f 10 05 80 65 00 	movss  0x6580(%rip),%xmm0        # 408590 <_IO_stdin_used+0xc0>
  40200f:	00 
  402010:	0f 57 c1             	xorps  %xmm1,%xmm0
  402013:	0f 2e 85 78 ff ff ff 	ucomiss -0x88(%rbp),%xmm0
  40201a:	72 3f                	jb     40205b <triangleDist+0x800>
  40201c:	f3 0f 10 05 64 65 00 	movss  0x6564(%rip),%xmm0        # 408588 <_IO_stdin_used+0xb8>
  402023:	00 
  402024:	f3 0f 11 85 6c ff ff 	movss  %xmm0,-0x94(%rbp)
  40202b:	ff 
  40202c:	f3 0f 5a 8d 78 ff ff 	cvtss2sd -0x88(%rbp),%xmm1
  402033:	ff 
  402034:	f3 0f 5a 45 80       	cvtss2sd -0x80(%rbp),%xmm0
  402039:	f2 0f 58 c0          	addsd  %xmm0,%xmm0
  40203d:	f2 0f 58 c8          	addsd  %xmm0,%xmm1
  402041:	f3 0f 5a 45 84       	cvtss2sd -0x7c(%rbp),%xmm0
  402046:	f2 0f 58 c1          	addsd  %xmm1,%xmm0
  40204a:	f2 0f 5a c0          	cvtsd2ss %xmm0,%xmm0
  40204e:	48 8b 85 50 ff ff ff 	mov    -0xb0(%rbp),%rax
  402055:	f3 0f 11 00          	movss  %xmm0,(%rax)
  402059:	eb 3d                	jmp    402098 <triangleDist+0x83d>
  40205b:	f3 0f 10 4d 80       	movss  -0x80(%rbp),%xmm1
  402060:	f3 0f 10 05 28 65 00 	movss  0x6528(%rip),%xmm0        # 408590 <_IO_stdin_used+0xc0>
  402067:	00 
  402068:	0f 57 c1             	xorps  %xmm1,%xmm0
  40206b:	f3 0f 5e 85 78 ff ff 	divss  -0x88(%rbp),%xmm0
  402072:	ff 
  402073:	f3 0f 11 85 6c ff ff 	movss  %xmm0,-0x94(%rbp)
  40207a:	ff 
  40207b:	f3 0f 10 45 80       	movss  -0x80(%rbp),%xmm0
  402080:	f3 0f 59 85 6c ff ff 	mulss  -0x94(%rbp),%xmm0
  402087:	ff 
  402088:	f3 0f 58 45 84       	addss  -0x7c(%rbp),%xmm0
  40208d:	48 8b 85 50 ff ff ff 	mov    -0xb0(%rbp),%rax
  402094:	f3 0f 11 00          	movss  %xmm0,(%rax)
  402098:	66 0f ef c0          	pxor   %xmm0,%xmm0
  40209c:	0f 2e 85 7c ff ff ff 	ucomiss -0x84(%rbp),%xmm0
  4020a3:	0f 86 b5 00 00 00    	jbe    40215e <triangleDist+0x903>
  4020a9:	66 0f ef c0          	pxor   %xmm0,%xmm0
  4020ad:	f3 0f 11 85 6c ff ff 	movss  %xmm0,-0x94(%rbp)
  4020b4:	ff 
  4020b5:	f3 0f 10 8d 7c ff ff 	movss  -0x84(%rbp),%xmm1
  4020bc:	ff 
  4020bd:	f3 0f 10 05 cb 64 00 	movss  0x64cb(%rip),%xmm0        # 408590 <_IO_stdin_used+0xc0>
  4020c4:	00 
  4020c5:	0f 57 c1             	xorps  %xmm1,%xmm0
  4020c8:	0f 2e 85 70 ff ff ff 	ucomiss -0x90(%rbp),%xmm0
  4020cf:	72 45                	jb     402116 <triangleDist+0x8bb>
  4020d1:	f3 0f 10 05 af 64 00 	movss  0x64af(%rip),%xmm0        # 408588 <_IO_stdin_used+0xb8>
  4020d8:	00 
  4020d9:	f3 0f 11 85 68 ff ff 	movss  %xmm0,-0x98(%rbp)
  4020e0:	ff 
  4020e1:	f3 0f 5a 8d 70 ff ff 	cvtss2sd -0x90(%rbp),%xmm1
  4020e8:	ff 
  4020e9:	f3 0f 5a 85 7c ff ff 	cvtss2sd -0x84(%rbp),%xmm0
  4020f0:	ff 
  4020f1:	f2 0f 58 c0          	addsd  %xmm0,%xmm0
  4020f5:	f2 0f 58 c8          	addsd  %xmm0,%xmm1
  4020f9:	f3 0f 5a 45 84       	cvtss2sd -0x7c(%rbp),%xmm0
  4020fe:	f2 0f 58 c1          	addsd  %xmm1,%xmm0
  402102:	f2 0f 5a c0          	cvtsd2ss %xmm0,%xmm0
  402106:	48 8b 85 50 ff ff ff 	mov    -0xb0(%rbp),%rax
  40210d:	f3 0f 11 00          	movss  %xmm0,(%rax)
  402111:	e9 18 01 00 00       	jmpq   40222e <triangleDist+0x9d3>
  402116:	f3 0f 10 8d 7c ff ff 	movss  -0x84(%rbp),%xmm1
  40211d:	ff 
  40211e:	f3 0f 10 05 6a 64 00 	movss  0x646a(%rip),%xmm0        # 408590 <_IO_stdin_used+0xc0>
  402125:	00 
  402126:	0f 57 c1             	xorps  %xmm1,%xmm0
  402129:	f3 0f 5e 85 70 ff ff 	divss  -0x90(%rbp),%xmm0
  402130:	ff 
  402131:	f3 0f 11 85 68 ff ff 	movss  %xmm0,-0x98(%rbp)
  402138:	ff 
  402139:	f3 0f 10 85 7c ff ff 	movss  -0x84(%rbp),%xmm0
  402140:	ff 
  402141:	f3 0f 59 85 68 ff ff 	mulss  -0x98(%rbp),%xmm0
  402148:	ff 
  402149:	f3 0f 58 45 84       	addss  -0x7c(%rbp),%xmm0
  40214e:	48 8b 85 50 ff ff ff 	mov    -0xb0(%rbp),%rax
  402155:	f3 0f 11 00          	movss  %xmm0,(%rax)
  402159:	e9 d0 00 00 00       	jmpq   40222e <triangleDist+0x9d3>
  40215e:	66 0f ef c0          	pxor   %xmm0,%xmm0
  402162:	f3 0f 11 85 68 ff ff 	movss  %xmm0,-0x98(%rbp)
  402169:	ff 
  40216a:	f3 0f 10 45 80       	movss  -0x80(%rbp),%xmm0
  40216f:	66 0f ef c9          	pxor   %xmm1,%xmm1
  402173:	0f 2e c1             	ucomiss %xmm1,%xmm0
  402176:	72 21                	jb     402199 <triangleDist+0x93e>
  402178:	66 0f ef c0          	pxor   %xmm0,%xmm0
  40217c:	f3 0f 11 85 6c ff ff 	movss  %xmm0,-0x94(%rbp)
  402183:	ff 
  402184:	48 8b 85 50 ff ff ff 	mov    -0xb0(%rbp),%rax
  40218b:	f3 0f 10 45 84       	movss  -0x7c(%rbp),%xmm0
  402190:	f3 0f 11 00          	movss  %xmm0,(%rax)
  402194:	e9 95 00 00 00       	jmpq   40222e <triangleDist+0x9d3>
  402199:	f3 0f 10 4d 80       	movss  -0x80(%rbp),%xmm1
  40219e:	f3 0f 10 05 ea 63 00 	movss  0x63ea(%rip),%xmm0        # 408590 <_IO_stdin_used+0xc0>
  4021a5:	00 
  4021a6:	0f 57 c1             	xorps  %xmm1,%xmm0
  4021a9:	0f 2e 85 78 ff ff ff 	ucomiss -0x88(%rbp),%xmm0
  4021b0:	72 3f                	jb     4021f1 <triangleDist+0x996>
  4021b2:	f3 0f 10 05 ce 63 00 	movss  0x63ce(%rip),%xmm0        # 408588 <_IO_stdin_used+0xb8>
  4021b9:	00 
  4021ba:	f3 0f 11 85 6c ff ff 	movss  %xmm0,-0x94(%rbp)
  4021c1:	ff 
  4021c2:	f3 0f 5a 8d 78 ff ff 	cvtss2sd -0x88(%rbp),%xmm1
  4021c9:	ff 
  4021ca:	f3 0f 5a 45 80       	cvtss2sd -0x80(%rbp),%xmm0
  4021cf:	f2 0f 58 c0          	addsd  %xmm0,%xmm0
  4021d3:	f2 0f 58 c8          	addsd  %xmm0,%xmm1
  4021d7:	f3 0f 5a 45 84       	cvtss2sd -0x7c(%rbp),%xmm0
  4021dc:	f2 0f 58 c1          	addsd  %xmm1,%xmm0
  4021e0:	f2 0f 5a c0          	cvtsd2ss %xmm0,%xmm0
  4021e4:	48 8b 85 50 ff ff ff 	mov    -0xb0(%rbp),%rax
  4021eb:	f3 0f 11 00          	movss  %xmm0,(%rax)
  4021ef:	eb 3d                	jmp    40222e <triangleDist+0x9d3>
  4021f1:	f3 0f 10 4d 80       	movss  -0x80(%rbp),%xmm1
  4021f6:	f3 0f 10 05 92 63 00 	movss  0x6392(%rip),%xmm0        # 408590 <_IO_stdin_used+0xc0>
  4021fd:	00 
  4021fe:	0f 57 c1             	xorps  %xmm1,%xmm0
  402201:	f3 0f 5e 85 78 ff ff 	divss  -0x88(%rbp),%xmm0
  402208:	ff 
  402209:	f3 0f 11 85 6c ff ff 	movss  %xmm0,-0x94(%rbp)
  402210:	ff 
  402211:	f3 0f 10 45 80       	movss  -0x80(%rbp),%xmm0
  402216:	f3 0f 59 85 6c ff ff 	mulss  -0x94(%rbp),%xmm0
  40221d:	ff 
  40221e:	f3 0f 58 45 84       	addss  -0x7c(%rbp),%xmm0
  402223:	48 8b 85 50 ff ff ff 	mov    -0xb0(%rbp),%rax
  40222a:	f3 0f 11 00          	movss  %xmm0,(%rax)
  40222e:	66 0f ef c0          	pxor   %xmm0,%xmm0
  402232:	f3 0f 11 85 6c ff ff 	movss  %xmm0,-0x94(%rbp)
  402239:	ff 
  40223a:	f3 0f 10 85 7c ff ff 	movss  -0x84(%rbp),%xmm0
  402241:	ff 
  402242:	66 0f ef c9          	pxor   %xmm1,%xmm1
  402246:	0f 2e c1             	ucomiss %xmm1,%xmm0
  402249:	72 21                	jb     40226c <triangleDist+0xa11>
  40224b:	66 0f ef c0          	pxor   %xmm0,%xmm0
  40224f:	f3 0f 11 85 68 ff ff 	movss  %xmm0,-0x98(%rbp)
  402256:	ff 
  402257:	48 8b 85 50 ff ff ff 	mov    -0xb0(%rbp),%rax
  40225e:	f3 0f 10 45 84       	movss  -0x7c(%rbp),%xmm0
  402263:	f3 0f 11 00          	movss  %xmm0,(%rax)
  402267:	e9 a1 00 00 00       	jmpq   40230d <triangleDist+0xab2>
  40226c:	f3 0f 10 8d 7c ff ff 	movss  -0x84(%rbp),%xmm1
  402273:	ff 
  402274:	f3 0f 10 05 14 63 00 	movss  0x6314(%rip),%xmm0        # 408590 <_IO_stdin_used+0xc0>
  40227b:	00 
  40227c:	0f 57 c1             	xorps  %xmm1,%xmm0
  40227f:	0f 2e 85 70 ff ff ff 	ucomiss -0x90(%rbp),%xmm0
  402286:	72 42                	jb     4022ca <triangleDist+0xa6f>
  402288:	f3 0f 10 05 f8 62 00 	movss  0x62f8(%rip),%xmm0        # 408588 <_IO_stdin_used+0xb8>
  40228f:	00 
  402290:	f3 0f 11 85 68 ff ff 	movss  %xmm0,-0x98(%rbp)
  402297:	ff 
  402298:	f3 0f 5a 8d 70 ff ff 	cvtss2sd -0x90(%rbp),%xmm1
  40229f:	ff 
  4022a0:	f3 0f 5a 85 7c ff ff 	cvtss2sd -0x84(%rbp),%xmm0
  4022a7:	ff 
  4022a8:	f2 0f 58 c0          	addsd  %xmm0,%xmm0
  4022ac:	f2 0f 58 c8          	addsd  %xmm0,%xmm1
  4022b0:	f3 0f 5a 45 84       	cvtss2sd -0x7c(%rbp),%xmm0
  4022b5:	f2 0f 58 c1          	addsd  %xmm1,%xmm0
  4022b9:	f2 0f 5a c0          	cvtsd2ss %xmm0,%xmm0
  4022bd:	48 8b 85 50 ff ff ff 	mov    -0xb0(%rbp),%rax
  4022c4:	f3 0f 11 00          	movss  %xmm0,(%rax)
  4022c8:	eb 43                	jmp    40230d <triangleDist+0xab2>
  4022ca:	f3 0f 10 8d 7c ff ff 	movss  -0x84(%rbp),%xmm1
  4022d1:	ff 
  4022d2:	f3 0f 10 05 b6 62 00 	movss  0x62b6(%rip),%xmm0        # 408590 <_IO_stdin_used+0xc0>
  4022d9:	00 
  4022da:	0f 57 c1             	xorps  %xmm1,%xmm0
  4022dd:	f3 0f 5e 85 70 ff ff 	divss  -0x90(%rbp),%xmm0
  4022e4:	ff 
  4022e5:	f3 0f 11 85 68 ff ff 	movss  %xmm0,-0x98(%rbp)
  4022ec:	ff 
  4022ed:	f3 0f 10 85 7c ff ff 	movss  -0x84(%rbp),%xmm0
  4022f4:	ff 
  4022f5:	f3 0f 59 85 68 ff ff 	mulss  -0x98(%rbp),%xmm0
  4022fc:	ff 
  4022fd:	f3 0f 58 45 84       	addss  -0x7c(%rbp),%xmm0
  402302:	48 8b 85 50 ff ff ff 	mov    -0xb0(%rbp),%rax
  402309:	f3 0f 11 00          	movss  %xmm0,(%rax)
  40230d:	f3 0f 10 85 74 ff ff 	movss  -0x8c(%rbp),%xmm0
  402314:	ff 
  402315:	f3 0f 58 45 80       	addss  -0x80(%rbp),%xmm0
  40231a:	f3 0f 11 45 98       	movss  %xmm0,-0x68(%rbp)
  40231f:	f3 0f 10 85 70 ff ff 	movss  -0x90(%rbp),%xmm0
  402326:	ff 
  402327:	f3 0f 58 85 7c ff ff 	addss  -0x84(%rbp),%xmm0
  40232e:	ff 
  40232f:	f3 0f 11 45 9c       	movss  %xmm0,-0x64(%rbp)
  402334:	f3 0f 10 45 9c       	movss  -0x64(%rbp),%xmm0
  402339:	0f 2e 45 98          	ucomiss -0x68(%rbp),%xmm0
  40233d:	0f 86 6b 01 00 00    	jbe    4024ae <triangleDist+0xc53>
  402343:	f3 0f 10 45 9c       	movss  -0x64(%rbp),%xmm0
  402348:	f3 0f 5c 45 98       	subss  -0x68(%rbp),%xmm0
  40234d:	f3 0f 11 45 90       	movss  %xmm0,-0x70(%rbp)
  402352:	f3 0f 5a 8d 70 ff ff 	cvtss2sd -0x90(%rbp),%xmm1
  402359:	ff 
  40235a:	f3 0f 5a 85 74 ff ff 	cvtss2sd -0x8c(%rbp),%xmm0
  402361:	ff 
  402362:	f2 0f 58 c0          	addsd  %xmm0,%xmm0
  402366:	f2 0f 5c c8          	subsd  %xmm0,%xmm1
  40236a:	f3 0f 5a 85 78 ff ff 	cvtss2sd -0x88(%rbp),%xmm0
  402371:	ff 
  402372:	f2 0f 58 c1          	addsd  %xmm1,%xmm0
  402376:	f2 0f 5a e8          	cvtsd2ss %xmm0,%xmm5
  40237a:	f3 0f 11 6d 94       	movss  %xmm5,-0x6c(%rbp)
  40237f:	f3 0f 10 45 90       	movss  -0x70(%rbp),%xmm0
  402384:	0f 2e 45 94          	ucomiss -0x6c(%rbp),%xmm0
  402388:	72 4e                	jb     4023d8 <triangleDist+0xb7d>
  40238a:	f3 0f 10 05 f6 61 00 	movss  0x61f6(%rip),%xmm0        # 408588 <_IO_stdin_used+0xb8>
  402391:	00 
  402392:	f3 0f 11 85 6c ff ff 	movss  %xmm0,-0x94(%rbp)
  402399:	ff 
  40239a:	66 0f ef c0          	pxor   %xmm0,%xmm0
  40239e:	f3 0f 11 85 68 ff ff 	movss  %xmm0,-0x98(%rbp)
  4023a5:	ff 
  4023a6:	f3 0f 5a 8d 78 ff ff 	cvtss2sd -0x88(%rbp),%xmm1
  4023ad:	ff 
  4023ae:	f3 0f 5a 45 80       	cvtss2sd -0x80(%rbp),%xmm0
  4023b3:	f2 0f 58 c0          	addsd  %xmm0,%xmm0
  4023b7:	f2 0f 58 c8          	addsd  %xmm0,%xmm1
  4023bb:	f3 0f 5a 45 84       	cvtss2sd -0x7c(%rbp),%xmm0
  4023c0:	f2 0f 58 c1          	addsd  %xmm1,%xmm0
  4023c4:	f2 0f 5a c0          	cvtsd2ss %xmm0,%xmm0
  4023c8:	48 8b 85 50 ff ff ff 	mov    -0xb0(%rbp),%rax
  4023cf:	f3 0f 11 00          	movss  %xmm0,(%rax)
  4023d3:	e9 a0 01 00 00       	jmpq   402578 <triangleDist+0xd1d>
  4023d8:	f3 0f 10 45 90       	movss  -0x70(%rbp),%xmm0
  4023dd:	f3 0f 5e 45 94       	divss  -0x6c(%rbp),%xmm0
  4023e2:	f3 0f 11 85 6c ff ff 	movss  %xmm0,-0x94(%rbp)
  4023e9:	ff 
  4023ea:	f3 0f 10 05 96 61 00 	movss  0x6196(%rip),%xmm0        # 408588 <_IO_stdin_used+0xb8>
  4023f1:	00 
  4023f2:	f3 0f 5c 85 6c ff ff 	subss  -0x94(%rbp),%xmm0
  4023f9:	ff 
  4023fa:	f3 0f 11 85 68 ff ff 	movss  %xmm0,-0x98(%rbp)
  402401:	ff 
  402402:	f3 0f 5a 8d 68 ff ff 	cvtss2sd -0x98(%rbp),%xmm1
  402409:	ff 
  40240a:	f3 0f 10 85 70 ff ff 	movss  -0x90(%rbp),%xmm0
  402411:	ff 
  402412:	0f 28 d0             	movaps %xmm0,%xmm2
  402415:	f3 0f 59 95 68 ff ff 	mulss  -0x98(%rbp),%xmm2
  40241c:	ff 
  40241d:	f3 0f 10 85 74 ff ff 	movss  -0x8c(%rbp),%xmm0
  402424:	ff 
  402425:	f3 0f 59 85 6c ff ff 	mulss  -0x94(%rbp),%xmm0
  40242c:	ff 
  40242d:	f3 0f 58 c2          	addss  %xmm2,%xmm0
  402431:	f3 0f 5a d0          	cvtss2sd %xmm0,%xmm2
  402435:	f3 0f 5a 85 7c ff ff 	cvtss2sd -0x84(%rbp),%xmm0
  40243c:	ff 
  40243d:	f2 0f 58 c0          	addsd  %xmm0,%xmm0
  402441:	f2 0f 58 c2          	addsd  %xmm2,%xmm0
  402445:	f2 0f 59 c8          	mulsd  %xmm0,%xmm1
  402449:	f3 0f 5a 95 6c ff ff 	cvtss2sd -0x94(%rbp),%xmm2
  402450:	ff 
  402451:	f3 0f 10 85 74 ff ff 	movss  -0x8c(%rbp),%xmm0
  402458:	ff 
  402459:	0f 28 d8             	movaps %xmm0,%xmm3
  40245c:	f3 0f 59 9d 68 ff ff 	mulss  -0x98(%rbp),%xmm3
  402463:	ff 
  402464:	f3 0f 10 85 78 ff ff 	movss  -0x88(%rbp),%xmm0
  40246b:	ff 
  40246c:	f3 0f 59 85 6c ff ff 	mulss  -0x94(%rbp),%xmm0
  402473:	ff 
  402474:	f3 0f 58 c3          	addss  %xmm3,%xmm0
  402478:	f3 0f 5a d8          	cvtss2sd %xmm0,%xmm3
  40247c:	f3 0f 5a 45 80       	cvtss2sd -0x80(%rbp),%xmm0
  402481:	f2 0f 58 c0          	addsd  %xmm0,%xmm0
  402485:	f2 0f 58 c3          	addsd  %xmm3,%xmm0
  402489:	f2 0f 59 c2          	mulsd  %xmm2,%xmm0
  40248d:	f2 0f 58 c8          	addsd  %xmm0,%xmm1
  402491:	f3 0f 5a 45 84       	cvtss2sd -0x7c(%rbp),%xmm0
  402496:	f2 0f 58 c1          	addsd  %xmm1,%xmm0
  40249a:	f2 0f 5a c0          	cvtsd2ss %xmm0,%xmm0
  40249e:	48 8b 85 50 ff ff ff 	mov    -0xb0(%rbp),%rax
  4024a5:	f3 0f 11 00          	movss  %xmm0,(%rax)
  4024a9:	e9 ca 00 00 00       	jmpq   402578 <triangleDist+0xd1d>
  4024ae:	66 0f ef c0          	pxor   %xmm0,%xmm0
  4024b2:	f3 0f 11 85 6c ff ff 	movss  %xmm0,-0x94(%rbp)
  4024b9:	ff 
  4024ba:	66 0f ef c0          	pxor   %xmm0,%xmm0
  4024be:	0f 2e 45 9c          	ucomiss -0x64(%rbp),%xmm0
  4024c2:	72 42                	jb     402506 <triangleDist+0xcab>
  4024c4:	f3 0f 10 05 bc 60 00 	movss  0x60bc(%rip),%xmm0        # 408588 <_IO_stdin_used+0xb8>
  4024cb:	00 
  4024cc:	f3 0f 11 85 68 ff ff 	movss  %xmm0,-0x98(%rbp)
  4024d3:	ff 
  4024d4:	f3 0f 5a 8d 70 ff ff 	cvtss2sd -0x90(%rbp),%xmm1
  4024db:	ff 
  4024dc:	f3 0f 5a 85 7c ff ff 	cvtss2sd -0x84(%rbp),%xmm0
  4024e3:	ff 
  4024e4:	f2 0f 58 c0          	addsd  %xmm0,%xmm0
  4024e8:	f2 0f 58 c8          	addsd  %xmm0,%xmm1
  4024ec:	f3 0f 5a 45 84       	cvtss2sd -0x7c(%rbp),%xmm0
  4024f1:	f2 0f 58 c1          	addsd  %xmm1,%xmm0
  4024f5:	f2 0f 5a c0          	cvtsd2ss %xmm0,%xmm0
  4024f9:	48 8b 85 50 ff ff ff 	mov    -0xb0(%rbp),%rax
  402500:	f3 0f 11 00          	movss  %xmm0,(%rax)
  402504:	eb 72                	jmp    402578 <triangleDist+0xd1d>
  402506:	f3 0f 10 85 7c ff ff 	movss  -0x84(%rbp),%xmm0
  40250d:	ff 
  40250e:	66 0f ef c9          	pxor   %xmm1,%xmm1
  402512:	0f 2e c1             	ucomiss %xmm1,%xmm0
  402515:	72 1e                	jb     402535 <triangleDist+0xcda>
  402517:	66 0f ef c0          	pxor   %xmm0,%xmm0
  40251b:	f3 0f 11 85 68 ff ff 	movss  %xmm0,-0x98(%rbp)
  402522:	ff 
  402523:	48 8b 85 50 ff ff ff 	mov    -0xb0(%rbp),%rax
  40252a:	f3 0f 10 45 84       	movss  -0x7c(%rbp),%xmm0
  40252f:	f3 0f 11 00          	movss  %xmm0,(%rax)
  402533:	eb 43                	jmp    402578 <triangleDist+0xd1d>
  402535:	f3 0f 10 8d 7c ff ff 	movss  -0x84(%rbp),%xmm1
  40253c:	ff 
  40253d:	f3 0f 10 05 4b 60 00 	movss  0x604b(%rip),%xmm0        # 408590 <_IO_stdin_used+0xc0>
  402544:	00 
  402545:	0f 57 c1             	xorps  %xmm1,%xmm0
  402548:	f3 0f 5e 85 70 ff ff 	divss  -0x90(%rbp),%xmm0
  40254f:	ff 
  402550:	f3 0f 11 85 68 ff ff 	movss  %xmm0,-0x98(%rbp)
  402557:	ff 
  402558:	f3 0f 10 85 7c ff ff 	movss  -0x84(%rbp),%xmm0
  40255f:	ff 
  402560:	f3 0f 59 85 68 ff ff 	mulss  -0x98(%rbp),%xmm0
  402567:	ff 
  402568:	f3 0f 58 45 84       	addss  -0x7c(%rbp),%xmm0
  40256d:	48 8b 85 50 ff ff ff 	mov    -0xb0(%rbp),%rax
  402574:	f3 0f 11 00          	movss  %xmm0,(%rax)
  402578:	48 8d 55 b0          	lea    -0x50(%rbp),%rdx
  40257c:	8b 85 68 ff ff ff    	mov    -0x98(%rbp),%eax
  402582:	48 89 d7             	mov    %rdx,%rdi
  402585:	89 85 44 ff ff ff    	mov    %eax,-0xbc(%rbp)
  40258b:	f3 0f 10 85 44 ff ff 	movss  -0xbc(%rbp),%xmm0
  402592:	ff 
  402593:	e8 64 f2 ff ff       	callq  4017fc <scalarMul3D>
  402598:	48 8d 55 c0          	lea    -0x40(%rbp),%rdx
  40259c:	8b 85 6c ff ff ff    	mov    -0x94(%rbp),%eax
  4025a2:	48 89 d7             	mov    %rdx,%rdi
  4025a5:	89 85 44 ff ff ff    	mov    %eax,-0xbc(%rbp)
  4025ab:	f3 0f 10 85 44 ff ff 	movss  -0xbc(%rbp),%xmm0
  4025b2:	ff 
  4025b3:	e8 44 f2 ff ff       	callq  4017fc <scalarMul3D>
  4025b8:	48 8d 55 e0          	lea    -0x20(%rbp),%rdx
  4025bc:	48 8d 4d b0          	lea    -0x50(%rbp),%rcx
  4025c0:	48 8d 45 a0          	lea    -0x60(%rbp),%rax
  4025c4:	48 89 ce             	mov    %rcx,%rsi
  4025c7:	48 89 c7             	mov    %rax,%rdi
  4025ca:	e8 ae f1 ff ff       	callq  40177d <add3D>
  4025cf:	48 8b 95 48 ff ff ff 	mov    -0xb8(%rbp),%rdx
  4025d6:	48 8d 4d c0          	lea    -0x40(%rbp),%rcx
  4025da:	48 8d 45 e0          	lea    -0x20(%rbp),%rax
  4025de:	48 89 ce             	mov    %rcx,%rsi
  4025e1:	48 89 c7             	mov    %rax,%rdi
  4025e4:	e8 94 f1 ff ff       	callq  40177d <add3D>
  4025e9:	48 8b 85 50 ff ff ff 	mov    -0xb0(%rbp),%rax
  4025f0:	f3 0f 10 08          	movss  (%rax),%xmm1
  4025f4:	66 0f ef c0          	pxor   %xmm0,%xmm0
  4025f8:	0f 2e c1             	ucomiss %xmm1,%xmm0
  4025fb:	77 02                	ja     4025ff <triangleDist+0xda4>
  4025fd:	eb 0f                	jmp    40260e <triangleDist+0xdb3>
  4025ff:	48 8b 85 50 ff ff ff 	mov    -0xb0(%rbp),%rax
  402606:	66 0f ef c0          	pxor   %xmm0,%xmm0
  40260a:	f3 0f 11 00          	movss  %xmm0,(%rax)
  40260e:	90                   	nop
  40260f:	48 8b 45 f8          	mov    -0x8(%rbp),%rax
  402613:	64 48 33 04 25 28 00 	xor    %fs:0x28,%rax
  40261a:	00 00 
  40261c:	74 05                	je     402623 <triangleDist+0xdc8>
  40261e:	e8 1d eb ff ff       	callq  401140 <__stack_chk_fail@plt>
  402623:	c9                   	leaveq 
  402624:	c3                   	retq   

0000000000402625 <floatcomp>:
  402625:	55                   	push   %rbp
  402626:	48 89 e5             	mov    %rsp,%rbp
  402629:	48 89 7d f8          	mov    %rdi,-0x8(%rbp)
  40262d:	48 89 75 f0          	mov    %rsi,-0x10(%rbp)
  402631:	48 8b 45 f8          	mov    -0x8(%rbp),%rax
  402635:	f3 0f 10 08          	movss  (%rax),%xmm1
  402639:	48 8b 45 f0          	mov    -0x10(%rbp),%rax
  40263d:	f3 0f 10 00          	movss  (%rax),%xmm0
  402641:	0f 2e c1             	ucomiss %xmm1,%xmm0
  402644:	76 07                	jbe    40264d <floatcomp+0x28>
  402646:	b8 ff ff ff ff       	mov    $0xffffffff,%eax
  40264b:	eb 19                	jmp    402666 <floatcomp+0x41>
  40264d:	48 8b 45 f8          	mov    -0x8(%rbp),%rax
  402651:	f3 0f 10 00          	movss  (%rax),%xmm0
  402655:	48 8b 45 f0          	mov    -0x10(%rbp),%rax
  402659:	f3 0f 10 08          	movss  (%rax),%xmm1
  40265d:	0f 2e c1             	ucomiss %xmm1,%xmm0
  402660:	0f 97 c0             	seta   %al
  402663:	0f b6 c0             	movzbl %al,%eax
  402666:	5d                   	pop    %rbp
  402667:	c3                   	retq   

0000000000402668 <buildTree>:
  402668:	55                   	push   %rbp
  402669:	48 89 e5             	mov    %rsp,%rbp
  40266c:	41 57                	push   %r15
  40266e:	41 56                	push   %r14
  402670:	41 55                	push   %r13
  402672:	41 54                	push   %r12
  402674:	53                   	push   %rbx
  402675:	48 81 ec f8 00 00 00 	sub    $0xf8,%rsp
  40267c:	48 89 bd 68 ff ff ff 	mov    %rdi,-0x98(%rbp)
  402683:	48 89 b5 60 ff ff ff 	mov    %rsi,-0xa0(%rbp)
  40268a:	48 89 95 58 ff ff ff 	mov    %rdx,-0xa8(%rbp)
  402691:	89 8d 54 ff ff ff    	mov    %ecx,-0xac(%rbp)
  402697:	44 89 c2             	mov    %r8d,%edx
  40269a:	44 89 c8             	mov    %r9d,%eax
  40269d:	88 95 50 ff ff ff    	mov    %dl,-0xb0(%rbp)
  4026a3:	66 89 85 4c ff ff ff 	mov    %ax,-0xb4(%rbp)
  4026aa:	64 48 8b 04 25 28 00 	mov    %fs:0x28,%rax
  4026b1:	00 00 
  4026b3:	48 89 45 c8          	mov    %rax,-0x38(%rbp)
  4026b7:	31 c0                	xor    %eax,%eax
  4026b9:	48 89 e0             	mov    %rsp,%rax
  4026bc:	49 89 c7             	mov    %rax,%r15
  4026bf:	8b 95 54 ff ff ff    	mov    -0xac(%rbp),%edx
  4026c5:	89 d0                	mov    %edx,%eax
  4026c7:	01 c0                	add    %eax,%eax
  4026c9:	01 c2                	add    %eax,%edx
  4026cb:	89 d0                	mov    %edx,%eax
  4026cd:	48 83 e8 01          	sub    $0x1,%rax
  4026d1:	48 89 45 88          	mov    %rax,-0x78(%rbp)
  4026d5:	89 d0                	mov    %edx,%eax
  4026d7:	49 89 c2             	mov    %rax,%r10
  4026da:	41 bb 00 00 00 00    	mov    $0x0,%r11d
  4026e0:	89 d0                	mov    %edx,%eax
  4026e2:	48 89 85 00 ff ff ff 	mov    %rax,-0x100(%rbp)
  4026e9:	48 c7 85 08 ff ff ff 	movq   $0x0,-0xf8(%rbp)
  4026f0:	00 00 00 00 
  4026f4:	89 d0                	mov    %edx,%eax
  4026f6:	48 c1 e0 02          	shl    $0x2,%rax
  4026fa:	48 8d 50 03          	lea    0x3(%rax),%rdx
  4026fe:	b8 10 00 00 00       	mov    $0x10,%eax
  402703:	48 83 e8 01          	sub    $0x1,%rax
  402707:	48 01 d0             	add    %rdx,%rax
  40270a:	bb 10 00 00 00       	mov    $0x10,%ebx
  40270f:	ba 00 00 00 00       	mov    $0x0,%edx
  402714:	48 f7 f3             	div    %rbx
  402717:	48 6b c0 10          	imul   $0x10,%rax,%rax
  40271b:	48 29 c4             	sub    %rax,%rsp
  40271e:	48 89 e0             	mov    %rsp,%rax
  402721:	48 83 c0 03          	add    $0x3,%rax
  402725:	48 c1 e8 02          	shr    $0x2,%rax
  402729:	48 c1 e0 02          	shl    $0x2,%rax
  40272d:	48 89 45 90          	mov    %rax,-0x70(%rbp)
  402731:	8b 95 54 ff ff ff    	mov    -0xac(%rbp),%edx
  402737:	89 d0                	mov    %edx,%eax
  402739:	01 c0                	add    %eax,%eax
  40273b:	01 c2                	add    %eax,%edx
  40273d:	89 d0                	mov    %edx,%eax
  40273f:	48 83 e8 01          	sub    $0x1,%rax
  402743:	48 89 45 98          	mov    %rax,-0x68(%rbp)
  402747:	89 d0                	mov    %edx,%eax
  402749:	48 89 85 f0 fe ff ff 	mov    %rax,-0x110(%rbp)
  402750:	48 c7 85 f8 fe ff ff 	movq   $0x0,-0x108(%rbp)
  402757:	00 00 00 00 
  40275b:	89 d0                	mov    %edx,%eax
  40275d:	48 89 85 e0 fe ff ff 	mov    %rax,-0x120(%rbp)
  402764:	48 c7 85 e8 fe ff ff 	movq   $0x0,-0x118(%rbp)
  40276b:	00 00 00 00 
  40276f:	89 d0                	mov    %edx,%eax
  402771:	48 c1 e0 02          	shl    $0x2,%rax
  402775:	48 8d 50 03          	lea    0x3(%rax),%rdx
  402779:	b8 10 00 00 00       	mov    $0x10,%eax
  40277e:	48 83 e8 01          	sub    $0x1,%rax
  402782:	48 01 d0             	add    %rdx,%rax
  402785:	bb 10 00 00 00       	mov    $0x10,%ebx
  40278a:	ba 00 00 00 00       	mov    $0x0,%edx
  40278f:	48 f7 f3             	div    %rbx
  402792:	48 6b c0 10          	imul   $0x10,%rax,%rax
  402796:	48 29 c4             	sub    %rax,%rsp
  402799:	48 89 e0             	mov    %rsp,%rax
  40279c:	48 83 c0 03          	add    $0x3,%rax
  4027a0:	48 c1 e8 02          	shr    $0x2,%rax
  4027a4:	48 c1 e0 02          	shl    $0x2,%rax
  4027a8:	48 89 45 a0          	mov    %rax,-0x60(%rbp)
  4027ac:	8b 95 54 ff ff ff    	mov    -0xac(%rbp),%edx
  4027b2:	89 d0                	mov    %edx,%eax
  4027b4:	01 c0                	add    %eax,%eax
  4027b6:	01 d0                	add    %edx,%eax
  4027b8:	89 45 80             	mov    %eax,-0x80(%rbp)
  4027bb:	c7 85 74 ff ff ff 00 	movl   $0x0,-0x8c(%rbp)
  4027c2:	00 00 00 
  4027c5:	c7 85 78 ff ff ff 00 	movl   $0x0,-0x88(%rbp)
  4027cc:	00 00 00 
  4027cf:	0f b6 8d 50 ff ff ff 	movzbl -0xb0(%rbp),%ecx
  4027d6:	0f b6 d1             	movzbl %cl,%edx
  4027d9:	89 d0                	mov    %edx,%eax
  4027db:	c1 e0 03             	shl    $0x3,%eax
  4027de:	01 d0                	add    %edx,%eax
  4027e0:	01 c0                	add    %eax,%eax
  4027e2:	01 d0                	add    %edx,%eax
  4027e4:	8d 14 c5 00 00 00 00 	lea    0x0(,%rax,8),%edx
  4027eb:	01 d0                	add    %edx,%eax
  4027ed:	66 c1 e8 08          	shr    $0x8,%ax
  4027f1:	89 c2                	mov    %eax,%edx
  4027f3:	d0 ea                	shr    %dl
  4027f5:	89 d0                	mov    %edx,%eax
  4027f7:	01 c0                	add    %eax,%eax
  4027f9:	01 d0                	add    %edx,%eax
  4027fb:	29 c1                	sub    %eax,%ecx
  4027fd:	89 c8                	mov    %ecx,%eax
  4027ff:	88 85 73 ff ff ff    	mov    %al,-0x8d(%rbp)
  402805:	0f b6 85 73 ff ff ff 	movzbl -0x8d(%rbp),%eax
  40280c:	83 f8 01             	cmp    $0x1,%eax
  40280f:	0f 84 b8 01 00 00    	je     4029cd <buildTree+0x365>
  402815:	83 f8 02             	cmp    $0x2,%eax
  402818:	0f 84 58 03 00 00    	je     402b76 <buildTree+0x50e>
  40281e:	85 c0                	test   %eax,%eax
  402820:	0f 85 f5 04 00 00    	jne    402d1b <buildTree+0x6b3>
  402826:	c7 85 7c ff ff ff 00 	movl   $0x0,-0x84(%rbp)
  40282d:	00 00 00 
  402830:	e9 81 01 00 00       	jmpq   4029b6 <buildTree+0x34e>
  402835:	8b 95 7c ff ff ff    	mov    -0x84(%rbp),%edx
  40283b:	89 d0                	mov    %edx,%eax
  40283d:	01 c0                	add    %eax,%eax
  40283f:	8d 0c 10             	lea    (%rax,%rdx,1),%ecx
  402842:	8b 95 7c ff ff ff    	mov    -0x84(%rbp),%edx
  402848:	48 89 d0             	mov    %rdx,%rax
  40284b:	48 c1 e0 03          	shl    $0x3,%rax
  40284f:	48 01 d0             	add    %rdx,%rax
  402852:	48 c1 e0 02          	shl    $0x2,%rax
  402856:	48 89 c2             	mov    %rax,%rdx
  402859:	48 8b 85 58 ff ff ff 	mov    -0xa8(%rbp),%rax
  402860:	48 01 d0             	add    %rdx,%rax
  402863:	f3 0f 10 00          	movss  (%rax),%xmm0
  402867:	48 8b 45 90          	mov    -0x70(%rbp),%rax
  40286b:	89 ca                	mov    %ecx,%edx
  40286d:	f3 0f 11 04 90       	movss  %xmm0,(%rax,%rdx,4)
  402872:	8b 95 7c ff ff ff    	mov    -0x84(%rbp),%edx
  402878:	89 d0                	mov    %edx,%eax
  40287a:	01 c0                	add    %eax,%eax
  40287c:	01 d0                	add    %edx,%eax
  40287e:	8d 48 01             	lea    0x1(%rax),%ecx
  402881:	8b 95 7c ff ff ff    	mov    -0x84(%rbp),%edx
  402887:	48 89 d0             	mov    %rdx,%rax
  40288a:	48 c1 e0 03          	shl    $0x3,%rax
  40288e:	48 01 d0             	add    %rdx,%rax
  402891:	48 c1 e0 02          	shl    $0x2,%rax
  402895:	48 89 c2             	mov    %rax,%rdx
  402898:	48 8b 85 58 ff ff ff 	mov    -0xa8(%rbp),%rax
  40289f:	48 01 d0             	add    %rdx,%rax
  4028a2:	f3 0f 10 40 0c       	movss  0xc(%rax),%xmm0
  4028a7:	48 8b 45 90          	mov    -0x70(%rbp),%rax
  4028ab:	89 ca                	mov    %ecx,%edx
  4028ad:	f3 0f 11 04 90       	movss  %xmm0,(%rax,%rdx,4)
  4028b2:	8b 95 7c ff ff ff    	mov    -0x84(%rbp),%edx
  4028b8:	89 d0                	mov    %edx,%eax
  4028ba:	01 c0                	add    %eax,%eax
  4028bc:	01 d0                	add    %edx,%eax
  4028be:	8d 48 02             	lea    0x2(%rax),%ecx
  4028c1:	8b 95 7c ff ff ff    	mov    -0x84(%rbp),%edx
  4028c7:	48 89 d0             	mov    %rdx,%rax
  4028ca:	48 c1 e0 03          	shl    $0x3,%rax
  4028ce:	48 01 d0             	add    %rdx,%rax
  4028d1:	48 c1 e0 02          	shl    $0x2,%rax
  4028d5:	48 89 c2             	mov    %rax,%rdx
  4028d8:	48 8b 85 58 ff ff ff 	mov    -0xa8(%rbp),%rax
  4028df:	48 01 d0             	add    %rdx,%rax
  4028e2:	f3 0f 10 40 18       	movss  0x18(%rax),%xmm0
  4028e7:	48 8b 45 90          	mov    -0x70(%rbp),%rax
  4028eb:	89 ca                	mov    %ecx,%edx
  4028ed:	f3 0f 11 04 90       	movss  %xmm0,(%rax,%rdx,4)
  4028f2:	8b 95 7c ff ff ff    	mov    -0x84(%rbp),%edx
  4028f8:	89 d0                	mov    %edx,%eax
  4028fa:	01 c0                	add    %eax,%eax
  4028fc:	8d 0c 10             	lea    (%rax,%rdx,1),%ecx
  4028ff:	8b 95 7c ff ff ff    	mov    -0x84(%rbp),%edx
  402905:	48 89 d0             	mov    %rdx,%rax
  402908:	48 c1 e0 03          	shl    $0x3,%rax
  40290c:	48 01 d0             	add    %rdx,%rax
  40290f:	48 c1 e0 02          	shl    $0x2,%rax
  402913:	48 89 c2             	mov    %rax,%rdx
  402916:	48 8b 85 58 ff ff ff 	mov    -0xa8(%rbp),%rax
  40291d:	48 01 d0             	add    %rdx,%rax
  402920:	f3 0f 10 00          	movss  (%rax),%xmm0
  402924:	48 8b 45 a0          	mov    -0x60(%rbp),%rax
  402928:	89 ca                	mov    %ecx,%edx
  40292a:	f3 0f 11 04 90       	movss  %xmm0,(%rax,%rdx,4)
  40292f:	8b 95 7c ff ff ff    	mov    -0x84(%rbp),%edx
  402935:	89 d0                	mov    %edx,%eax
  402937:	01 c0                	add    %eax,%eax
  402939:	01 d0                	add    %edx,%eax
  40293b:	8d 48 01             	lea    0x1(%rax),%ecx
  40293e:	8b 95 7c ff ff ff    	mov    -0x84(%rbp),%edx
  402944:	48 89 d0             	mov    %rdx,%rax
  402947:	48 c1 e0 03          	shl    $0x3,%rax
  40294b:	48 01 d0             	add    %rdx,%rax
  40294e:	48 c1 e0 02          	shl    $0x2,%rax
  402952:	48 89 c2             	mov    %rax,%rdx
  402955:	48 8b 85 58 ff ff ff 	mov    -0xa8(%rbp),%rax
  40295c:	48 01 d0             	add    %rdx,%rax
  40295f:	f3 0f 10 40 0c       	movss  0xc(%rax),%xmm0
  402964:	48 8b 45 a0          	mov    -0x60(%rbp),%rax
  402968:	89 ca                	mov    %ecx,%edx
  40296a:	f3 0f 11 04 90       	movss  %xmm0,(%rax,%rdx,4)
  40296f:	8b 95 7c ff ff ff    	mov    -0x84(%rbp),%edx
  402975:	89 d0                	mov    %edx,%eax
  402977:	01 c0                	add    %eax,%eax
  402979:	01 d0                	add    %edx,%eax
  40297b:	8d 48 02             	lea    0x2(%rax),%ecx
  40297e:	8b 95 7c ff ff ff    	mov    -0x84(%rbp),%edx
  402984:	48 89 d0             	mov    %rdx,%rax
  402987:	48 c1 e0 03          	shl    $0x3,%rax
  40298b:	48 01 d0             	add    %rdx,%rax
  40298e:	48 c1 e0 02          	shl    $0x2,%rax
  402992:	48 89 c2             	mov    %rax,%rdx
  402995:	48 8b 85 58 ff ff ff 	mov    -0xa8(%rbp),%rax
  40299c:	48 01 d0             	add    %rdx,%rax
  40299f:	f3 0f 10 40 18       	movss  0x18(%rax),%xmm0
  4029a4:	48 8b 45 a0          	mov    -0x60(%rbp),%rax
  4029a8:	89 ca                	mov    %ecx,%edx
  4029aa:	f3 0f 11 04 90       	movss  %xmm0,(%rax,%rdx,4)
  4029af:	83 85 7c ff ff ff 01 	addl   $0x1,-0x84(%rbp)
  4029b6:	8b 85 7c ff ff ff    	mov    -0x84(%rbp),%eax
  4029bc:	3b 85 54 ff ff ff    	cmp    -0xac(%rbp),%eax
  4029c2:	0f 82 6d fe ff ff    	jb     402835 <buildTree+0x1cd>
  4029c8:	e9 4e 03 00 00       	jmpq   402d1b <buildTree+0x6b3>
  4029cd:	c7 85 7c ff ff ff 00 	movl   $0x0,-0x84(%rbp)
  4029d4:	00 00 00 
  4029d7:	e9 83 01 00 00       	jmpq   402b5f <buildTree+0x4f7>
  4029dc:	8b 95 7c ff ff ff    	mov    -0x84(%rbp),%edx
  4029e2:	89 d0                	mov    %edx,%eax
  4029e4:	01 c0                	add    %eax,%eax
  4029e6:	8d 0c 10             	lea    (%rax,%rdx,1),%ecx
  4029e9:	8b 95 7c ff ff ff    	mov    -0x84(%rbp),%edx
  4029ef:	48 89 d0             	mov    %rdx,%rax
  4029f2:	48 c1 e0 03          	shl    $0x3,%rax
  4029f6:	48 01 d0             	add    %rdx,%rax
  4029f9:	48 c1 e0 02          	shl    $0x2,%rax
  4029fd:	48 89 c2             	mov    %rax,%rdx
  402a00:	48 8b 85 58 ff ff ff 	mov    -0xa8(%rbp),%rax
  402a07:	48 01 d0             	add    %rdx,%rax
  402a0a:	f3 0f 10 40 04       	movss  0x4(%rax),%xmm0
  402a0f:	48 8b 45 90          	mov    -0x70(%rbp),%rax
  402a13:	89 ca                	mov    %ecx,%edx
  402a15:	f3 0f 11 04 90       	movss  %xmm0,(%rax,%rdx,4)
  402a1a:	8b 95 7c ff ff ff    	mov    -0x84(%rbp),%edx
  402a20:	89 d0                	mov    %edx,%eax
  402a22:	01 c0                	add    %eax,%eax
  402a24:	01 d0                	add    %edx,%eax
  402a26:	8d 48 01             	lea    0x1(%rax),%ecx
  402a29:	8b 95 7c ff ff ff    	mov    -0x84(%rbp),%edx
  402a2f:	48 89 d0             	mov    %rdx,%rax
  402a32:	48 c1 e0 03          	shl    $0x3,%rax
  402a36:	48 01 d0             	add    %rdx,%rax
  402a39:	48 c1 e0 02          	shl    $0x2,%rax
  402a3d:	48 89 c2             	mov    %rax,%rdx
  402a40:	48 8b 85 58 ff ff ff 	mov    -0xa8(%rbp),%rax
  402a47:	48 01 d0             	add    %rdx,%rax
  402a4a:	f3 0f 10 40 10       	movss  0x10(%rax),%xmm0
  402a4f:	48 8b 45 90          	mov    -0x70(%rbp),%rax
  402a53:	89 ca                	mov    %ecx,%edx
  402a55:	f3 0f 11 04 90       	movss  %xmm0,(%rax,%rdx,4)
  402a5a:	8b 95 7c ff ff ff    	mov    -0x84(%rbp),%edx
  402a60:	89 d0                	mov    %edx,%eax
  402a62:	01 c0                	add    %eax,%eax
  402a64:	01 d0                	add    %edx,%eax
  402a66:	8d 48 02             	lea    0x2(%rax),%ecx
  402a69:	8b 95 7c ff ff ff    	mov    -0x84(%rbp),%edx
  402a6f:	48 89 d0             	mov    %rdx,%rax
  402a72:	48 c1 e0 03          	shl    $0x3,%rax
  402a76:	48 01 d0             	add    %rdx,%rax
  402a79:	48 c1 e0 02          	shl    $0x2,%rax
  402a7d:	48 89 c2             	mov    %rax,%rdx
  402a80:	48 8b 85 58 ff ff ff 	mov    -0xa8(%rbp),%rax
  402a87:	48 01 d0             	add    %rdx,%rax
  402a8a:	f3 0f 10 40 1c       	movss  0x1c(%rax),%xmm0
  402a8f:	48 8b 45 90          	mov    -0x70(%rbp),%rax
  402a93:	89 ca                	mov    %ecx,%edx
  402a95:	f3 0f 11 04 90       	movss  %xmm0,(%rax,%rdx,4)
  402a9a:	8b 95 7c ff ff ff    	mov    -0x84(%rbp),%edx
  402aa0:	89 d0                	mov    %edx,%eax
  402aa2:	01 c0                	add    %eax,%eax
  402aa4:	8d 0c 10             	lea    (%rax,%rdx,1),%ecx
  402aa7:	8b 95 7c ff ff ff    	mov    -0x84(%rbp),%edx
  402aad:	48 89 d0             	mov    %rdx,%rax
  402ab0:	48 c1 e0 03          	shl    $0x3,%rax
  402ab4:	48 01 d0             	add    %rdx,%rax
  402ab7:	48 c1 e0 02          	shl    $0x2,%rax
  402abb:	48 89 c2             	mov    %rax,%rdx
  402abe:	48 8b 85 58 ff ff ff 	mov    -0xa8(%rbp),%rax
  402ac5:	48 01 d0             	add    %rdx,%rax
  402ac8:	f3 0f 10 40 04       	movss  0x4(%rax),%xmm0
  402acd:	48 8b 45 a0          	mov    -0x60(%rbp),%rax
  402ad1:	89 ca                	mov    %ecx,%edx
  402ad3:	f3 0f 11 04 90       	movss  %xmm0,(%rax,%rdx,4)
  402ad8:	8b 95 7c ff ff ff    	mov    -0x84(%rbp),%edx
  402ade:	89 d0                	mov    %edx,%eax
  402ae0:	01 c0                	add    %eax,%eax
  402ae2:	01 d0                	add    %edx,%eax
  402ae4:	8d 48 01             	lea    0x1(%rax),%ecx
  402ae7:	8b 95 7c ff ff ff    	mov    -0x84(%rbp),%edx
  402aed:	48 89 d0             	mov    %rdx,%rax
  402af0:	48 c1 e0 03          	shl    $0x3,%rax
  402af4:	48 01 d0             	add    %rdx,%rax
  402af7:	48 c1 e0 02          	shl    $0x2,%rax
  402afb:	48 89 c2             	mov    %rax,%rdx
  402afe:	48 8b 85 58 ff ff ff 	mov    -0xa8(%rbp),%rax
  402b05:	48 01 d0             	add    %rdx,%rax
  402b08:	f3 0f 10 40 10       	movss  0x10(%rax),%xmm0
  402b0d:	48 8b 45 a0          	mov    -0x60(%rbp),%rax
  402b11:	89 ca                	mov    %ecx,%edx
  402b13:	f3 0f 11 04 90       	movss  %xmm0,(%rax,%rdx,4)
  402b18:	8b 95 7c ff ff ff    	mov    -0x84(%rbp),%edx
  402b1e:	89 d0                	mov    %edx,%eax
  402b20:	01 c0                	add    %eax,%eax
  402b22:	01 d0                	add    %edx,%eax
  402b24:	8d 48 02             	lea    0x2(%rax),%ecx
  402b27:	8b 95 7c ff ff ff    	mov    -0x84(%rbp),%edx
  402b2d:	48 89 d0             	mov    %rdx,%rax
  402b30:	48 c1 e0 03          	shl    $0x3,%rax
  402b34:	48 01 d0             	add    %rdx,%rax
  402b37:	48 c1 e0 02          	shl    $0x2,%rax
  402b3b:	48 89 c2             	mov    %rax,%rdx
  402b3e:	48 8b 85 58 ff ff ff 	mov    -0xa8(%rbp),%rax
  402b45:	48 01 d0             	add    %rdx,%rax
  402b48:	f3 0f 10 40 1c       	movss  0x1c(%rax),%xmm0
  402b4d:	48 8b 45 a0          	mov    -0x60(%rbp),%rax
  402b51:	89 ca                	mov    %ecx,%edx
  402b53:	f3 0f 11 04 90       	movss  %xmm0,(%rax,%rdx,4)
  402b58:	83 85 7c ff ff ff 01 	addl   $0x1,-0x84(%rbp)
  402b5f:	8b 85 7c ff ff ff    	mov    -0x84(%rbp),%eax
  402b65:	3b 85 54 ff ff ff    	cmp    -0xac(%rbp),%eax
  402b6b:	0f 82 6b fe ff ff    	jb     4029dc <buildTree+0x374>
  402b71:	e9 a5 01 00 00       	jmpq   402d1b <buildTree+0x6b3>
  402b76:	c7 85 7c ff ff ff 00 	movl   $0x0,-0x84(%rbp)
  402b7d:	00 00 00 
  402b80:	e9 83 01 00 00       	jmpq   402d08 <buildTree+0x6a0>
  402b85:	8b 95 7c ff ff ff    	mov    -0x84(%rbp),%edx
  402b8b:	89 d0                	mov    %edx,%eax
  402b8d:	01 c0                	add    %eax,%eax
  402b8f:	8d 0c 10             	lea    (%rax,%rdx,1),%ecx
  402b92:	8b 95 7c ff ff ff    	mov    -0x84(%rbp),%edx
  402b98:	48 89 d0             	mov    %rdx,%rax
  402b9b:	48 c1 e0 03          	shl    $0x3,%rax
  402b9f:	48 01 d0             	add    %rdx,%rax
  402ba2:	48 c1 e0 02          	shl    $0x2,%rax
  402ba6:	48 89 c2             	mov    %rax,%rdx
  402ba9:	48 8b 85 58 ff ff ff 	mov    -0xa8(%rbp),%rax
  402bb0:	48 01 d0             	add    %rdx,%rax
  402bb3:	f3 0f 10 40 08       	movss  0x8(%rax),%xmm0
  402bb8:	48 8b 45 90          	mov    -0x70(%rbp),%rax
  402bbc:	89 ca                	mov    %ecx,%edx
  402bbe:	f3 0f 11 04 90       	movss  %xmm0,(%rax,%rdx,4)
  402bc3:	8b 95 7c ff ff ff    	mov    -0x84(%rbp),%edx
  402bc9:	89 d0                	mov    %edx,%eax
  402bcb:	01 c0                	add    %eax,%eax
  402bcd:	01 d0                	add    %edx,%eax
  402bcf:	8d 48 01             	lea    0x1(%rax),%ecx
  402bd2:	8b 95 7c ff ff ff    	mov    -0x84(%rbp),%edx
  402bd8:	48 89 d0             	mov    %rdx,%rax
  402bdb:	48 c1 e0 03          	shl    $0x3,%rax
  402bdf:	48 01 d0             	add    %rdx,%rax
  402be2:	48 c1 e0 02          	shl    $0x2,%rax
  402be6:	48 89 c2             	mov    %rax,%rdx
  402be9:	48 8b 85 58 ff ff ff 	mov    -0xa8(%rbp),%rax
  402bf0:	48 01 d0             	add    %rdx,%rax
  402bf3:	f3 0f 10 40 14       	movss  0x14(%rax),%xmm0
  402bf8:	48 8b 45 90          	mov    -0x70(%rbp),%rax
  402bfc:	89 ca                	mov    %ecx,%edx
  402bfe:	f3 0f 11 04 90       	movss  %xmm0,(%rax,%rdx,4)
  402c03:	8b 95 7c ff ff ff    	mov    -0x84(%rbp),%edx
  402c09:	89 d0                	mov    %edx,%eax
  402c0b:	01 c0                	add    %eax,%eax
  402c0d:	01 d0                	add    %edx,%eax
  402c0f:	8d 48 02             	lea    0x2(%rax),%ecx
  402c12:	8b 95 7c ff ff ff    	mov    -0x84(%rbp),%edx
  402c18:	48 89 d0             	mov    %rdx,%rax
  402c1b:	48 c1 e0 03          	shl    $0x3,%rax
  402c1f:	48 01 d0             	add    %rdx,%rax
  402c22:	48 c1 e0 02          	shl    $0x2,%rax
  402c26:	48 89 c2             	mov    %rax,%rdx
  402c29:	48 8b 85 58 ff ff ff 	mov    -0xa8(%rbp),%rax
  402c30:	48 01 d0             	add    %rdx,%rax
  402c33:	f3 0f 10 40 20       	movss  0x20(%rax),%xmm0
  402c38:	48 8b 45 90          	mov    -0x70(%rbp),%rax
  402c3c:	89 ca                	mov    %ecx,%edx
  402c3e:	f3 0f 11 04 90       	movss  %xmm0,(%rax,%rdx,4)
  402c43:	8b 95 7c ff ff ff    	mov    -0x84(%rbp),%edx
  402c49:	89 d0                	mov    %edx,%eax
  402c4b:	01 c0                	add    %eax,%eax
  402c4d:	8d 0c 10             	lea    (%rax,%rdx,1),%ecx
  402c50:	8b 95 7c ff ff ff    	mov    -0x84(%rbp),%edx
  402c56:	48 89 d0             	mov    %rdx,%rax
  402c59:	48 c1 e0 03          	shl    $0x3,%rax
  402c5d:	48 01 d0             	add    %rdx,%rax
  402c60:	48 c1 e0 02          	shl    $0x2,%rax
  402c64:	48 89 c2             	mov    %rax,%rdx
  402c67:	48 8b 85 58 ff ff ff 	mov    -0xa8(%rbp),%rax
  402c6e:	48 01 d0             	add    %rdx,%rax
  402c71:	f3 0f 10 40 08       	movss  0x8(%rax),%xmm0
  402c76:	48 8b 45 a0          	mov    -0x60(%rbp),%rax
  402c7a:	89 ca                	mov    %ecx,%edx
  402c7c:	f3 0f 11 04 90       	movss  %xmm0,(%rax,%rdx,4)
  402c81:	8b 95 7c ff ff ff    	mov    -0x84(%rbp),%edx
  402c87:	89 d0                	mov    %edx,%eax
  402c89:	01 c0                	add    %eax,%eax
  402c8b:	01 d0                	add    %edx,%eax
  402c8d:	8d 48 01             	lea    0x1(%rax),%ecx
  402c90:	8b 95 7c ff ff ff    	mov    -0x84(%rbp),%edx
  402c96:	48 89 d0             	mov    %rdx,%rax
  402c99:	48 c1 e0 03          	shl    $0x3,%rax
  402c9d:	48 01 d0             	add    %rdx,%rax
  402ca0:	48 c1 e0 02          	shl    $0x2,%rax
  402ca4:	48 89 c2             	mov    %rax,%rdx
  402ca7:	48 8b 85 58 ff ff ff 	mov    -0xa8(%rbp),%rax
  402cae:	48 01 d0             	add    %rdx,%rax
  402cb1:	f3 0f 10 40 14       	movss  0x14(%rax),%xmm0
  402cb6:	48 8b 45 a0          	mov    -0x60(%rbp),%rax
  402cba:	89 ca                	mov    %ecx,%edx
  402cbc:	f3 0f 11 04 90       	movss  %xmm0,(%rax,%rdx,4)
  402cc1:	8b 95 7c ff ff ff    	mov    -0x84(%rbp),%edx
  402cc7:	89 d0                	mov    %edx,%eax
  402cc9:	01 c0                	add    %eax,%eax
  402ccb:	01 d0                	add    %edx,%eax
  402ccd:	8d 48 02             	lea    0x2(%rax),%ecx
  402cd0:	8b 95 7c ff ff ff    	mov    -0x84(%rbp),%edx
  402cd6:	48 89 d0             	mov    %rdx,%rax
  402cd9:	48 c1 e0 03          	shl    $0x3,%rax
  402cdd:	48 01 d0             	add    %rdx,%rax
  402ce0:	48 c1 e0 02          	shl    $0x2,%rax
  402ce4:	48 89 c2             	mov    %rax,%rdx
  402ce7:	48 8b 85 58 ff ff ff 	mov    -0xa8(%rbp),%rax
  402cee:	48 01 d0             	add    %rdx,%rax
  402cf1:	f3 0f 10 40 20       	movss  0x20(%rax),%xmm0
  402cf6:	48 8b 45 a0          	mov    -0x60(%rbp),%rax
  402cfa:	89 ca                	mov    %ecx,%edx
  402cfc:	f3 0f 11 04 90       	movss  %xmm0,(%rax,%rdx,4)
  402d01:	83 85 7c ff ff ff 01 	addl   $0x1,-0x84(%rbp)
  402d08:	8b 85 7c ff ff ff    	mov    -0x84(%rbp),%eax
  402d0e:	3b 85 54 ff ff ff    	cmp    -0xac(%rbp),%eax
  402d14:	0f 82 6b fe ff ff    	jb     402b85 <buildTree+0x51d>
  402d1a:	90                   	nop
  402d1b:	8b 95 54 ff ff ff    	mov    -0xac(%rbp),%edx
  402d21:	89 d0                	mov    %edx,%eax
  402d23:	01 c0                	add    %eax,%eax
  402d25:	01 d0                	add    %edx,%eax
  402d27:	89 c6                	mov    %eax,%esi
  402d29:	48 8b 45 90          	mov    -0x70(%rbp),%rax
  402d2d:	b9 25 26 40 00       	mov    $0x402625,%ecx
  402d32:	ba 04 00 00 00       	mov    $0x4,%edx
  402d37:	48 89 c7             	mov    %rax,%rdi
  402d3a:	e8 d1 e3 ff ff       	callq  401110 <qsort@plt>
  402d3f:	8b 45 80             	mov    -0x80(%rbp),%eax
  402d42:	d1 e8                	shr    %eax
  402d44:	89 c2                	mov    %eax,%edx
  402d46:	48 8b 45 90          	mov    -0x70(%rbp),%rax
  402d4a:	89 d2                	mov    %edx,%edx
  402d4c:	f3 0f 10 04 90       	movss  (%rax,%rdx,4),%xmm0
  402d51:	f3 0f 11 45 84       	movss  %xmm0,-0x7c(%rbp)
  402d56:	bf 38 00 00 00       	mov    $0x38,%edi
  402d5b:	e8 20 e4 ff ff       	callq  401180 <malloc@plt>
  402d60:	48 89 c2             	mov    %rax,%rdx
  402d63:	48 8b 85 68 ff ff ff 	mov    -0x98(%rbp),%rax
  402d6a:	48 89 10             	mov    %rdx,(%rax)
  402d6d:	48 8b 85 68 ff ff ff 	mov    -0x98(%rbp),%rax
  402d74:	48 8b 00             	mov    (%rax),%rax
  402d77:	f3 0f 10 45 84       	movss  -0x7c(%rbp),%xmm0
  402d7c:	f3 0f 11 00          	movss  %xmm0,(%rax)
  402d80:	48 8b 85 68 ff ff ff 	mov    -0x98(%rbp),%rax
  402d87:	48 8b 00             	mov    (%rax),%rax
  402d8a:	48 8b 95 60 ff ff ff 	mov    -0xa0(%rbp),%rdx
  402d91:	48 89 50 20          	mov    %rdx,0x20(%rax)
  402d95:	48 8b 85 68 ff ff ff 	mov    -0x98(%rbp),%rax
  402d9c:	48 8b 00             	mov    (%rax),%rax
  402d9f:	0f b6 95 73 ff ff ff 	movzbl -0x8d(%rbp),%edx
  402da6:	88 50 0a             	mov    %dl,0xa(%rax)
  402da9:	48 8b 85 68 ff ff ff 	mov    -0x98(%rbp),%rax
  402db0:	48 8b 00             	mov    (%rax),%rax
  402db3:	0f b7 95 4c ff ff ff 	movzwl -0xb4(%rbp),%edx
  402dba:	66 89 50 04          	mov    %dx,0x4(%rax)
  402dbe:	8b 8d 54 ff ff ff    	mov    -0xac(%rbp),%ecx
  402dc4:	48 89 e0             	mov    %rsp,%rax
  402dc7:	49 89 c4             	mov    %rax,%r12
  402dca:	89 c8                	mov    %ecx,%eax
  402dcc:	48 83 e8 01          	sub    $0x1,%rax
  402dd0:	48 89 45 a8          	mov    %rax,-0x58(%rbp)
  402dd4:	89 c8                	mov    %ecx,%eax
  402dd6:	48 89 85 30 ff ff ff 	mov    %rax,-0xd0(%rbp)
  402ddd:	48 c7 85 38 ff ff ff 	movq   $0x0,-0xc8(%rbp)
  402de4:	00 00 00 00 
  402de8:	4c 8b 85 30 ff ff ff 	mov    -0xd0(%rbp),%r8
  402def:	4c 8b 8d 38 ff ff ff 	mov    -0xc8(%rbp),%r9
  402df6:	49 69 d1 20 01 00 00 	imul   $0x120,%r9,%rdx
  402dfd:	49 6b c0 00          	imul   $0x0,%r8,%rax
  402e01:	48 8d 34 02          	lea    (%rdx,%rax,1),%rsi
  402e05:	b8 20 01 00 00       	mov    $0x120,%eax
  402e0a:	49 f7 e0             	mul    %r8
  402e0d:	48 01 d6             	add    %rdx,%rsi
  402e10:	48 89 f2             	mov    %rsi,%rdx
  402e13:	89 ca                	mov    %ecx,%edx
  402e15:	48 89 d0             	mov    %rdx,%rax
  402e18:	48 c1 e0 03          	shl    $0x3,%rax
  402e1c:	48 01 d0             	add    %rdx,%rax
  402e1f:	48 c1 e0 02          	shl    $0x2,%rax
  402e23:	89 c8                	mov    %ecx,%eax
  402e25:	48 89 85 20 ff ff ff 	mov    %rax,-0xe0(%rbp)
  402e2c:	48 c7 85 28 ff ff ff 	movq   $0x0,-0xd8(%rbp)
  402e33:	00 00 00 00 
  402e37:	4c 8b 8d 20 ff ff ff 	mov    -0xe0(%rbp),%r9
  402e3e:	4c 8b 95 28 ff ff ff 	mov    -0xd8(%rbp),%r10
  402e45:	49 69 d2 20 01 00 00 	imul   $0x120,%r10,%rdx
  402e4c:	49 6b c1 00          	imul   $0x0,%r9,%rax
  402e50:	48 8d 34 02          	lea    (%rdx,%rax,1),%rsi
  402e54:	b8 20 01 00 00       	mov    $0x120,%eax
  402e59:	49 f7 e1             	mul    %r9
  402e5c:	48 01 d6             	add    %rdx,%rsi
  402e5f:	48 89 f2             	mov    %rsi,%rdx
  402e62:	89 ca                	mov    %ecx,%edx
  402e64:	48 89 d0             	mov    %rdx,%rax
  402e67:	48 c1 e0 03          	shl    $0x3,%rax
  402e6b:	48 01 d0             	add    %rdx,%rax
  402e6e:	48 c1 e0 02          	shl    $0x2,%rax
  402e72:	48 8d 50 03          	lea    0x3(%rax),%rdx
  402e76:	b8 10 00 00 00       	mov    $0x10,%eax
  402e7b:	48 83 e8 01          	sub    $0x1,%rax
  402e7f:	48 01 d0             	add    %rdx,%rax
  402e82:	bb 10 00 00 00       	mov    $0x10,%ebx
  402e87:	ba 00 00 00 00       	mov    $0x0,%edx
  402e8c:	48 f7 f3             	div    %rbx
  402e8f:	48 6b c0 10          	imul   $0x10,%rax,%rax
  402e93:	48 29 c4             	sub    %rax,%rsp
  402e96:	48 89 e0             	mov    %rsp,%rax
  402e99:	48 83 c0 03          	add    $0x3,%rax
  402e9d:	48 c1 e8 02          	shr    $0x2,%rax
  402ea1:	48 c1 e0 02          	shl    $0x2,%rax
  402ea5:	48 89 45 b0          	mov    %rax,-0x50(%rbp)
  402ea9:	8b 8d 54 ff ff ff    	mov    -0xac(%rbp),%ecx
  402eaf:	89 c8                	mov    %ecx,%eax
  402eb1:	48 83 e8 01          	sub    $0x1,%rax
  402eb5:	48 89 45 b8          	mov    %rax,-0x48(%rbp)
  402eb9:	89 c8                	mov    %ecx,%eax
  402ebb:	48 89 85 10 ff ff ff 	mov    %rax,-0xf0(%rbp)
  402ec2:	48 c7 85 18 ff ff ff 	movq   $0x0,-0xe8(%rbp)
  402ec9:	00 00 00 00 
  402ecd:	4c 8b 95 10 ff ff ff 	mov    -0xf0(%rbp),%r10
  402ed4:	4c 8b 9d 18 ff ff ff 	mov    -0xe8(%rbp),%r11
  402edb:	49 69 d3 20 01 00 00 	imul   $0x120,%r11,%rdx
  402ee2:	49 6b c2 00          	imul   $0x0,%r10,%rax
  402ee6:	48 8d 34 02          	lea    (%rdx,%rax,1),%rsi
  402eea:	b8 20 01 00 00       	mov    $0x120,%eax
  402eef:	49 f7 e2             	mul    %r10
  402ef2:	48 01 d6             	add    %rdx,%rsi
  402ef5:	48 89 f2             	mov    %rsi,%rdx
  402ef8:	89 ca                	mov    %ecx,%edx
  402efa:	48 89 d0             	mov    %rdx,%rax
  402efd:	48 c1 e0 03          	shl    $0x3,%rax
  402f01:	48 01 d0             	add    %rdx,%rax
  402f04:	48 c1 e0 02          	shl    $0x2,%rax
  402f08:	89 c8                	mov    %ecx,%eax
  402f0a:	49 89 c5             	mov    %rax,%r13
  402f0d:	41 be 00 00 00 00    	mov    $0x0,%r14d
  402f13:	49 69 d6 20 01 00 00 	imul   $0x120,%r14,%rdx
  402f1a:	49 6b c5 00          	imul   $0x0,%r13,%rax
  402f1e:	48 8d 34 02          	lea    (%rdx,%rax,1),%rsi
  402f22:	b8 20 01 00 00       	mov    $0x120,%eax
  402f27:	49 f7 e5             	mul    %r13
  402f2a:	48 01 d6             	add    %rdx,%rsi
  402f2d:	48 89 f2             	mov    %rsi,%rdx
  402f30:	89 ca                	mov    %ecx,%edx
  402f32:	48 89 d0             	mov    %rdx,%rax
  402f35:	48 c1 e0 03          	shl    $0x3,%rax
  402f39:	48 01 d0             	add    %rdx,%rax
  402f3c:	48 c1 e0 02          	shl    $0x2,%rax
  402f40:	48 8d 50 03          	lea    0x3(%rax),%rdx
  402f44:	b8 10 00 00 00       	mov    $0x10,%eax
  402f49:	48 83 e8 01          	sub    $0x1,%rax
  402f4d:	48 01 d0             	add    %rdx,%rax
  402f50:	bb 10 00 00 00       	mov    $0x10,%ebx
  402f55:	ba 00 00 00 00       	mov    $0x0,%edx
  402f5a:	48 f7 f3             	div    %rbx
  402f5d:	48 6b c0 10          	imul   $0x10,%rax,%rax
  402f61:	48 29 c4             	sub    %rax,%rsp
  402f64:	48 89 e0             	mov    %rsp,%rax
  402f67:	48 83 c0 03          	add    $0x3,%rax
  402f6b:	48 c1 e8 02          	shr    $0x2,%rax
  402f6f:	48 c1 e0 02          	shl    $0x2,%rax
  402f73:	48 89 45 c0          	mov    %rax,-0x40(%rbp)
  402f77:	c7 85 7c ff ff ff 00 	movl   $0x0,-0x84(%rbp)
  402f7e:	00 00 00 
  402f81:	e9 83 02 00 00       	jmpq   403209 <buildTree+0xba1>
  402f86:	8b 95 7c ff ff ff    	mov    -0x84(%rbp),%edx
  402f8c:	89 d0                	mov    %edx,%eax
  402f8e:	01 c0                	add    %eax,%eax
  402f90:	01 c2                	add    %eax,%edx
  402f92:	48 8b 45 a0          	mov    -0x60(%rbp),%rax
  402f96:	89 d2                	mov    %edx,%edx
  402f98:	f3 0f 10 0c 90       	movss  (%rax,%rdx,4),%xmm1
  402f9d:	f3 0f 10 45 84       	movss  -0x7c(%rbp),%xmm0
  402fa2:	0f 2e c1             	ucomiss %xmm1,%xmm0
  402fa5:	0f 86 b8 00 00 00    	jbe    403063 <buildTree+0x9fb>
  402fab:	8b 95 7c ff ff ff    	mov    -0x84(%rbp),%edx
  402fb1:	89 d0                	mov    %edx,%eax
  402fb3:	01 c0                	add    %eax,%eax
  402fb5:	01 d0                	add    %edx,%eax
  402fb7:	8d 50 01             	lea    0x1(%rax),%edx
  402fba:	48 8b 45 a0          	mov    -0x60(%rbp),%rax
  402fbe:	89 d2                	mov    %edx,%edx
  402fc0:	f3 0f 10 0c 90       	movss  (%rax,%rdx,4),%xmm1
  402fc5:	f3 0f 10 45 84       	movss  -0x7c(%rbp),%xmm0
  402fca:	0f 2e c1             	ucomiss %xmm1,%xmm0
  402fcd:	0f 86 90 00 00 00    	jbe    403063 <buildTree+0x9fb>
  402fd3:	8b 95 7c ff ff ff    	mov    -0x84(%rbp),%edx
  402fd9:	89 d0                	mov    %edx,%eax
  402fdb:	01 c0                	add    %eax,%eax
  402fdd:	01 d0                	add    %edx,%eax
  402fdf:	8d 50 02             	lea    0x2(%rax),%edx
  402fe2:	48 8b 45 a0          	mov    -0x60(%rbp),%rax
  402fe6:	89 d2                	mov    %edx,%edx
  402fe8:	f3 0f 10 0c 90       	movss  (%rax,%rdx,4),%xmm1
  402fed:	f3 0f 10 45 84       	movss  -0x7c(%rbp),%xmm0
  402ff2:	0f 2e c1             	ucomiss %xmm1,%xmm0
  402ff5:	76 6c                	jbe    403063 <buildTree+0x9fb>
  402ff7:	8b 95 7c ff ff ff    	mov    -0x84(%rbp),%edx
  402ffd:	48 89 d0             	mov    %rdx,%rax
  403000:	48 c1 e0 03          	shl    $0x3,%rax
  403004:	48 01 d0             	add    %rdx,%rax
  403007:	48 c1 e0 02          	shl    $0x2,%rax
  40300b:	48 89 c2             	mov    %rax,%rdx
  40300e:	48 8b 85 58 ff ff ff 	mov    -0xa8(%rbp),%rax
  403015:	48 01 c2             	add    %rax,%rdx
  403018:	48 8b 75 b0          	mov    -0x50(%rbp),%rsi
  40301c:	8b 8d 74 ff ff ff    	mov    -0x8c(%rbp),%ecx
  403022:	48 89 c8             	mov    %rcx,%rax
  403025:	48 c1 e0 03          	shl    $0x3,%rax
  403029:	48 01 c8             	add    %rcx,%rax
  40302c:	48 c1 e0 02          	shl    $0x2,%rax
  403030:	48 01 f0             	add    %rsi,%rax
  403033:	48 8b 0a             	mov    (%rdx),%rcx
  403036:	48 89 08             	mov    %rcx,(%rax)
  403039:	48 8b 4a 08          	mov    0x8(%rdx),%rcx
  40303d:	48 89 48 08          	mov    %rcx,0x8(%rax)
  403041:	48 8b 4a 10          	mov    0x10(%rdx),%rcx
  403045:	48 89 48 10          	mov    %rcx,0x10(%rax)
  403049:	48 8b 4a 18          	mov    0x18(%rdx),%rcx
  40304d:	48 89 48 18          	mov    %rcx,0x18(%rax)
  403051:	8b 52 20             	mov    0x20(%rdx),%edx
  403054:	89 50 20             	mov    %edx,0x20(%rax)
  403057:	83 85 74 ff ff ff 01 	addl   $0x1,-0x8c(%rbp)
  40305e:	e9 9f 01 00 00       	jmpq   403202 <buildTree+0xb9a>
  403063:	8b 95 7c ff ff ff    	mov    -0x84(%rbp),%edx
  403069:	89 d0                	mov    %edx,%eax
  40306b:	01 c0                	add    %eax,%eax
  40306d:	01 c2                	add    %eax,%edx
  40306f:	48 8b 45 a0          	mov    -0x60(%rbp),%rax
  403073:	89 d2                	mov    %edx,%edx
  403075:	f3 0f 10 04 90       	movss  (%rax,%rdx,4),%xmm0
  40307a:	0f 2e 45 84          	ucomiss -0x7c(%rbp),%xmm0
  40307e:	0f 82 b0 00 00 00    	jb     403134 <buildTree+0xacc>
  403084:	8b 95 7c ff ff ff    	mov    -0x84(%rbp),%edx
  40308a:	89 d0                	mov    %edx,%eax
  40308c:	01 c0                	add    %eax,%eax
  40308e:	01 d0                	add    %edx,%eax
  403090:	8d 50 01             	lea    0x1(%rax),%edx
  403093:	48 8b 45 a0          	mov    -0x60(%rbp),%rax
  403097:	89 d2                	mov    %edx,%edx
  403099:	f3 0f 10 04 90       	movss  (%rax,%rdx,4),%xmm0
  40309e:	0f 2e 45 84          	ucomiss -0x7c(%rbp),%xmm0
  4030a2:	0f 82 8c 00 00 00    	jb     403134 <buildTree+0xacc>
  4030a8:	8b 95 7c ff ff ff    	mov    -0x84(%rbp),%edx
  4030ae:	89 d0                	mov    %edx,%eax
  4030b0:	01 c0                	add    %eax,%eax
  4030b2:	01 d0                	add    %edx,%eax
  4030b4:	8d 50 02             	lea    0x2(%rax),%edx
  4030b7:	48 8b 45 a0          	mov    -0x60(%rbp),%rax
  4030bb:	89 d2                	mov    %edx,%edx
  4030bd:	f3 0f 10 04 90       	movss  (%rax,%rdx,4),%xmm0
  4030c2:	0f 2e 45 84          	ucomiss -0x7c(%rbp),%xmm0
  4030c6:	72 6c                	jb     403134 <buildTree+0xacc>
  4030c8:	8b 95 7c ff ff ff    	mov    -0x84(%rbp),%edx
  4030ce:	48 89 d0             	mov    %rdx,%rax
  4030d1:	48 c1 e0 03          	shl    $0x3,%rax
  4030d5:	48 01 d0             	add    %rdx,%rax
  4030d8:	48 c1 e0 02          	shl    $0x2,%rax
  4030dc:	48 89 c2             	mov    %rax,%rdx
  4030df:	48 8b 85 58 ff ff ff 	mov    -0xa8(%rbp),%rax
  4030e6:	48 01 c2             	add    %rax,%rdx
  4030e9:	48 8b 75 c0          	mov    -0x40(%rbp),%rsi
  4030ed:	8b 8d 78 ff ff ff    	mov    -0x88(%rbp),%ecx
  4030f3:	48 89 c8             	mov    %rcx,%rax
  4030f6:	48 c1 e0 03          	shl    $0x3,%rax
  4030fa:	48 01 c8             	add    %rcx,%rax
  4030fd:	48 c1 e0 02          	shl    $0x2,%rax
  403101:	48 01 f0             	add    %rsi,%rax
  403104:	48 8b 0a             	mov    (%rdx),%rcx
  403107:	48 89 08             	mov    %rcx,(%rax)
  40310a:	48 8b 4a 08          	mov    0x8(%rdx),%rcx
  40310e:	48 89 48 08          	mov    %rcx,0x8(%rax)
  403112:	48 8b 4a 10          	mov    0x10(%rdx),%rcx
  403116:	48 89 48 10          	mov    %rcx,0x10(%rax)
  40311a:	48 8b 4a 18          	mov    0x18(%rdx),%rcx
  40311e:	48 89 48 18          	mov    %rcx,0x18(%rax)
  403122:	8b 52 20             	mov    0x20(%rdx),%edx
  403125:	89 50 20             	mov    %edx,0x20(%rax)
  403128:	83 85 78 ff ff ff 01 	addl   $0x1,-0x88(%rbp)
  40312f:	e9 ce 00 00 00       	jmpq   403202 <buildTree+0xb9a>
  403134:	8b 95 7c ff ff ff    	mov    -0x84(%rbp),%edx
  40313a:	48 89 d0             	mov    %rdx,%rax
  40313d:	48 c1 e0 03          	shl    $0x3,%rax
  403141:	48 01 d0             	add    %rdx,%rax
  403144:	48 c1 e0 02          	shl    $0x2,%rax
  403148:	48 89 c2             	mov    %rax,%rdx
  40314b:	48 8b 85 58 ff ff ff 	mov    -0xa8(%rbp),%rax
  403152:	48 01 c2             	add    %rax,%rdx
  403155:	48 8b 75 b0          	mov    -0x50(%rbp),%rsi
  403159:	8b 8d 74 ff ff ff    	mov    -0x8c(%rbp),%ecx
  40315f:	48 89 c8             	mov    %rcx,%rax
  403162:	48 c1 e0 03          	shl    $0x3,%rax
  403166:	48 01 c8             	add    %rcx,%rax
  403169:	48 c1 e0 02          	shl    $0x2,%rax
  40316d:	48 01 f0             	add    %rsi,%rax
  403170:	48 8b 0a             	mov    (%rdx),%rcx
  403173:	48 89 08             	mov    %rcx,(%rax)
  403176:	48 8b 4a 08          	mov    0x8(%rdx),%rcx
  40317a:	48 89 48 08          	mov    %rcx,0x8(%rax)
  40317e:	48 8b 4a 10          	mov    0x10(%rdx),%rcx
  403182:	48 89 48 10          	mov    %rcx,0x10(%rax)
  403186:	48 8b 4a 18          	mov    0x18(%rdx),%rcx
  40318a:	48 89 48 18          	mov    %rcx,0x18(%rax)
  40318e:	8b 52 20             	mov    0x20(%rdx),%edx
  403191:	89 50 20             	mov    %edx,0x20(%rax)
  403194:	83 85 74 ff ff ff 01 	addl   $0x1,-0x8c(%rbp)
  40319b:	8b 95 7c ff ff ff    	mov    -0x84(%rbp),%edx
  4031a1:	48 89 d0             	mov    %rdx,%rax
  4031a4:	48 c1 e0 03          	shl    $0x3,%rax
  4031a8:	48 01 d0             	add    %rdx,%rax
  4031ab:	48 c1 e0 02          	shl    $0x2,%rax
  4031af:	48 89 c2             	mov    %rax,%rdx
  4031b2:	48 8b 85 58 ff ff ff 	mov    -0xa8(%rbp),%rax
  4031b9:	48 01 c2             	add    %rax,%rdx
  4031bc:	48 8b 75 c0          	mov    -0x40(%rbp),%rsi
  4031c0:	8b 8d 78 ff ff ff    	mov    -0x88(%rbp),%ecx
  4031c6:	48 89 c8             	mov    %rcx,%rax
  4031c9:	48 c1 e0 03          	shl    $0x3,%rax
  4031cd:	48 01 c8             	add    %rcx,%rax
  4031d0:	48 c1 e0 02          	shl    $0x2,%rax
  4031d4:	48 01 f0             	add    %rsi,%rax
  4031d7:	48 8b 0a             	mov    (%rdx),%rcx
  4031da:	48 89 08             	mov    %rcx,(%rax)
  4031dd:	48 8b 4a 08          	mov    0x8(%rdx),%rcx
  4031e1:	48 89 48 08          	mov    %rcx,0x8(%rax)
  4031e5:	48 8b 4a 10          	mov    0x10(%rdx),%rcx
  4031e9:	48 89 48 10          	mov    %rcx,0x10(%rax)
  4031ed:	48 8b 4a 18          	mov    0x18(%rdx),%rcx
  4031f1:	48 89 48 18          	mov    %rcx,0x18(%rax)
  4031f5:	8b 52 20             	mov    0x20(%rdx),%edx
  4031f8:	89 50 20             	mov    %edx,0x20(%rax)
  4031fb:	83 85 78 ff ff ff 01 	addl   $0x1,-0x88(%rbp)
  403202:	83 85 7c ff ff ff 01 	addl   $0x1,-0x84(%rbp)
  403209:	8b 85 7c ff ff ff    	mov    -0x84(%rbp),%eax
  40320f:	3b 85 54 ff ff ff    	cmp    -0xac(%rbp),%eax
  403215:	0f 82 6b fd ff ff    	jb     402f86 <buildTree+0x91e>
  40321b:	48 8b 85 68 ff ff ff 	mov    -0x98(%rbp),%rax
  403222:	48 8b 18             	mov    (%rax),%rbx
  403225:	8b 95 74 ff ff ff    	mov    -0x8c(%rbp),%edx
  40322b:	48 89 d0             	mov    %rdx,%rax
  40322e:	48 c1 e0 03          	shl    $0x3,%rax
  403232:	48 01 d0             	add    %rdx,%rax
  403235:	48 c1 e0 02          	shl    $0x2,%rax
  403239:	48 89 c7             	mov    %rax,%rdi
  40323c:	e8 3f df ff ff       	callq  401180 <malloc@plt>
  403241:	48 89 43 10          	mov    %rax,0x10(%rbx)
  403245:	48 8b 85 68 ff ff ff 	mov    -0x98(%rbp),%rax
  40324c:	48 8b 18             	mov    (%rax),%rbx
  40324f:	8b 95 78 ff ff ff    	mov    -0x88(%rbp),%edx
  403255:	48 89 d0             	mov    %rdx,%rax
  403258:	48 c1 e0 03          	shl    $0x3,%rax
  40325c:	48 01 d0             	add    %rdx,%rax
  40325f:	48 c1 e0 02          	shl    $0x2,%rax
  403263:	48 89 c7             	mov    %rax,%rdi
  403266:	e8 15 df ff ff       	callq  401180 <malloc@plt>
  40326b:	48 89 43 18          	mov    %rax,0x18(%rbx)
  40326f:	8b 95 74 ff ff ff    	mov    -0x8c(%rbp),%edx
  403275:	48 89 d0             	mov    %rdx,%rax
  403278:	48 c1 e0 03          	shl    $0x3,%rax
  40327c:	48 01 d0             	add    %rdx,%rax
  40327f:	48 c1 e0 02          	shl    $0x2,%rax
  403283:	48 89 c2             	mov    %rax,%rdx
  403286:	48 8b 4d b0          	mov    -0x50(%rbp),%rcx
  40328a:	48 8b 85 68 ff ff ff 	mov    -0x98(%rbp),%rax
  403291:	48 8b 00             	mov    (%rax),%rax
  403294:	48 8b 40 10          	mov    0x10(%rax),%rax
  403298:	48 89 ce             	mov    %rcx,%rsi
  40329b:	48 89 c7             	mov    %rax,%rdi
  40329e:	e8 cd de ff ff       	callq  401170 <memcpy@plt>
  4032a3:	8b 95 78 ff ff ff    	mov    -0x88(%rbp),%edx
  4032a9:	48 89 d0             	mov    %rdx,%rax
  4032ac:	48 c1 e0 03          	shl    $0x3,%rax
  4032b0:	48 01 d0             	add    %rdx,%rax
  4032b3:	48 c1 e0 02          	shl    $0x2,%rax
  4032b7:	48 89 c2             	mov    %rax,%rdx
  4032ba:	48 8b 4d c0          	mov    -0x40(%rbp),%rcx
  4032be:	48 8b 85 68 ff ff ff 	mov    -0x98(%rbp),%rax
  4032c5:	48 8b 00             	mov    (%rax),%rax
  4032c8:	48 8b 40 18          	mov    0x18(%rax),%rax
  4032cc:	48 89 ce             	mov    %rcx,%rsi
  4032cf:	48 89 c7             	mov    %rax,%rdi
  4032d2:	e8 99 de ff ff       	callq  401170 <memcpy@plt>
  4032d7:	48 8b 85 68 ff ff ff 	mov    -0x98(%rbp),%rax
  4032de:	48 8b 00             	mov    (%rax),%rax
  4032e1:	8b 95 74 ff ff ff    	mov    -0x8c(%rbp),%edx
  4032e7:	66 89 50 06          	mov    %dx,0x6(%rax)
  4032eb:	48 8b 85 68 ff ff ff 	mov    -0x98(%rbp),%rax
  4032f2:	48 8b 00             	mov    (%rax),%rax
  4032f5:	8b 95 78 ff ff ff    	mov    -0x88(%rbp),%edx
  4032fb:	66 89 50 08          	mov    %dx,0x8(%rax)
  4032ff:	80 bd 50 ff ff ff 00 	cmpb   $0x0,-0xb0(%rbp)
  403306:	74 3b                	je     403343 <buildTree+0xcdb>
  403308:	0f b7 85 4c ff ff ff 	movzwl -0xb4(%rbp),%eax
  40330f:	83 e0 01             	and    $0x1,%eax
  403312:	66 85 c0             	test   %ax,%ax
  403315:	74 17                	je     40332e <buildTree+0xcc6>
  403317:	48 8b 85 68 ff ff ff 	mov    -0x98(%rbp),%rax
  40331e:	48 8b 10             	mov    (%rax),%rdx
  403321:	48 8b 85 60 ff ff ff 	mov    -0xa0(%rbp),%rax
  403328:	48 89 50 28          	mov    %rdx,0x28(%rax)
  40332c:	eb 15                	jmp    403343 <buildTree+0xcdb>
  40332e:	48 8b 85 68 ff ff ff 	mov    -0x98(%rbp),%rax
  403335:	48 8b 10             	mov    (%rax),%rdx
  403338:	48 8b 85 60 ff ff ff 	mov    -0xa0(%rbp),%rax
  40333f:	48 89 50 30          	mov    %rdx,0x30(%rax)
  403343:	80 bd 50 ff ff ff 07 	cmpb   $0x7,-0xb0(%rbp)
  40334a:	0f 87 dc 00 00 00    	ja     40342c <buildTree+0xdc4>
  403350:	0f b7 85 4c ff ff ff 	movzwl -0xb4(%rbp),%eax
  403357:	01 c0                	add    %eax,%eax
  403359:	83 c0 01             	add    $0x1,%eax
  40335c:	44 0f b7 c0          	movzwl %ax,%r8d
  403360:	0f b6 85 50 ff ff ff 	movzbl -0xb0(%rbp),%eax
  403367:	83 c0 01             	add    $0x1,%eax
  40336a:	0f b6 f0             	movzbl %al,%esi
  40336d:	48 8b 85 68 ff ff ff 	mov    -0x98(%rbp),%rax
  403374:	48 8b 00             	mov    (%rax),%rax
  403377:	48 8b 50 10          	mov    0x10(%rax),%rdx
  40337b:	48 8b 85 68 ff ff ff 	mov    -0x98(%rbp),%rax
  403382:	48 8b 00             	mov    (%rax),%rax
  403385:	48 8b 8d 68 ff ff ff 	mov    -0x98(%rbp),%rcx
  40338c:	48 8b 09             	mov    (%rcx),%rcx
  40338f:	48 8d 79 28          	lea    0x28(%rcx),%rdi
  403393:	8b 8d 74 ff ff ff    	mov    -0x8c(%rbp),%ecx
  403399:	45 89 c1             	mov    %r8d,%r9d
  40339c:	41 89 f0             	mov    %esi,%r8d
  40339f:	48 89 c6             	mov    %rax,%rsi
  4033a2:	e8 c1 f2 ff ff       	callq  402668 <buildTree>
  4033a7:	0f b7 85 4c ff ff ff 	movzwl -0xb4(%rbp),%eax
  4033ae:	83 c0 01             	add    $0x1,%eax
  4033b1:	01 c0                	add    %eax,%eax
  4033b3:	44 0f b7 c0          	movzwl %ax,%r8d
  4033b7:	0f b6 85 50 ff ff ff 	movzbl -0xb0(%rbp),%eax
  4033be:	83 c0 01             	add    $0x1,%eax
  4033c1:	0f b6 f0             	movzbl %al,%esi
  4033c4:	48 8b 85 68 ff ff ff 	mov    -0x98(%rbp),%rax
  4033cb:	48 8b 00             	mov    (%rax),%rax
  4033ce:	48 8b 50 18          	mov    0x18(%rax),%rdx
  4033d2:	48 8b 85 68 ff ff ff 	mov    -0x98(%rbp),%rax
  4033d9:	48 8b 00             	mov    (%rax),%rax
  4033dc:	48 8b 8d 68 ff ff ff 	mov    -0x98(%rbp),%rcx
  4033e3:	48 8b 09             	mov    (%rcx),%rcx
  4033e6:	48 8d 79 30          	lea    0x30(%rcx),%rdi
  4033ea:	8b 8d 78 ff ff ff    	mov    -0x88(%rbp),%ecx
  4033f0:	45 89 c1             	mov    %r8d,%r9d
  4033f3:	41 89 f0             	mov    %esi,%r8d
  4033f6:	48 89 c6             	mov    %rax,%rsi
  4033f9:	e8 6a f2 ff ff       	callq  402668 <buildTree>
  4033fe:	48 8b 85 68 ff ff ff 	mov    -0x98(%rbp),%rax
  403405:	48 8b 00             	mov    (%rax),%rax
  403408:	48 8b 40 10          	mov    0x10(%rax),%rax
  40340c:	48 89 c7             	mov    %rax,%rdi
  40340f:	e8 dc dc ff ff       	callq  4010f0 <free@plt>
  403414:	48 8b 85 68 ff ff ff 	mov    -0x98(%rbp),%rax
  40341b:	48 8b 00             	mov    (%rax),%rax
  40341e:	48 8b 40 18          	mov    0x18(%rax),%rax
  403422:	48 89 c7             	mov    %rax,%rdi
  403425:	e8 c6 dc ff ff       	callq  4010f0 <free@plt>
  40342a:	eb 24                	jmp    403450 <buildTree+0xde8>
  40342c:	48 8b 85 68 ff ff ff 	mov    -0x98(%rbp),%rax
  403433:	48 8b 00             	mov    (%rax),%rax
  403436:	48 c7 40 28 00 00 00 	movq   $0x0,0x28(%rax)
  40343d:	00 
  40343e:	48 8b 85 68 ff ff ff 	mov    -0x98(%rbp),%rax
  403445:	48 8b 00             	mov    (%rax),%rax
  403448:	48 c7 40 30 00 00 00 	movq   $0x0,0x30(%rax)
  40344f:	00 
  403450:	4c 89 e4             	mov    %r12,%rsp
  403453:	4c 89 fc             	mov    %r15,%rsp
  403456:	90                   	nop
  403457:	48 8b 45 c8          	mov    -0x38(%rbp),%rax
  40345b:	64 48 33 04 25 28 00 	xor    %fs:0x28,%rax
  403462:	00 00 
  403464:	74 05                	je     40346b <buildTree+0xe03>
  403466:	e8 d5 dc ff ff       	callq  401140 <__stack_chk_fail@plt>
  40346b:	48 8d 65 d8          	lea    -0x28(%rbp),%rsp
  40346f:	5b                   	pop    %rbx
  403470:	41 5c                	pop    %r12
  403472:	41 5d                	pop    %r13
  403474:	41 5e                	pop    %r14
  403476:	41 5f                	pop    %r15
  403478:	5d                   	pop    %rbp
  403479:	c3                   	retq   

000000000040347a <initTree>:
  40347a:	55                   	push   %rbp
  40347b:	48 89 e5             	mov    %rsp,%rbp
  40347e:	48 83 ec 20          	sub    $0x20,%rsp
  403482:	48 89 7d e8          	mov    %rdi,-0x18(%rbp)
  403486:	89 75 e4             	mov    %esi,-0x1c(%rbp)
  403489:	64 48 8b 04 25 28 00 	mov    %fs:0x28,%rax
  403490:	00 00 
  403492:	48 89 45 f8          	mov    %rax,-0x8(%rbp)
  403496:	31 c0                	xor    %eax,%eax
  403498:	8b 4d e4             	mov    -0x1c(%rbp),%ecx
  40349b:	48 8b 55 e8          	mov    -0x18(%rbp),%rdx
  40349f:	48 8d 45 f0          	lea    -0x10(%rbp),%rax
  4034a3:	41 b9 00 00 00 00    	mov    $0x0,%r9d
  4034a9:	41 b8 00 00 00 00    	mov    $0x0,%r8d
  4034af:	be 00 00 00 00       	mov    $0x0,%esi
  4034b4:	48 89 c7             	mov    %rax,%rdi
  4034b7:	e8 ac f1 ff ff       	callq  402668 <buildTree>
  4034bc:	48 8b 45 f0          	mov    -0x10(%rbp),%rax
  4034c0:	48 8b 75 f8          	mov    -0x8(%rbp),%rsi
  4034c4:	64 48 33 34 25 28 00 	xor    %fs:0x28,%rsi
  4034cb:	00 00 
  4034cd:	74 05                	je     4034d4 <initTree+0x5a>
  4034cf:	e8 6c dc ff ff       	callq  401140 <__stack_chk_fail@plt>
  4034d4:	c9                   	leaveq 
  4034d5:	c3                   	retq   

00000000004034d6 <checkFaces>:
  4034d6:	55                   	push   %rbp
  4034d7:	48 89 e5             	mov    %rsp,%rbp
  4034da:	48 83 ec 60          	sub    $0x60,%rsp
  4034de:	48 89 7d c8          	mov    %rdi,-0x38(%rbp)
  4034e2:	89 75 c4             	mov    %esi,-0x3c(%rbp)
  4034e5:	48 89 55 b8          	mov    %rdx,-0x48(%rbp)
  4034e9:	48 89 4d b0          	mov    %rcx,-0x50(%rbp)
  4034ed:	4c 89 45 a8          	mov    %r8,-0x58(%rbp)
  4034f1:	64 48 8b 04 25 28 00 	mov    %fs:0x28,%rax
  4034f8:	00 00 
  4034fa:	48 89 45 f8          	mov    %rax,-0x8(%rbp)
  4034fe:	31 c0                	xor    %eax,%eax
  403500:	c7 45 dc 00 00 00 00 	movl   $0x0,-0x24(%rbp)
  403507:	e9 a0 00 00 00       	jmpq   4035ac <checkFaces+0xd6>
  40350c:	8b 55 dc             	mov    -0x24(%rbp),%edx
  40350f:	48 89 d0             	mov    %rdx,%rax
  403512:	48 c1 e0 03          	shl    $0x3,%rax
  403516:	48 01 d0             	add    %rdx,%rax
  403519:	48 c1 e0 02          	shl    $0x2,%rax
  40351d:	48 89 c2             	mov    %rax,%rdx
  403520:	48 8b 45 c8          	mov    -0x38(%rbp),%rax
  403524:	48 01 d0             	add    %rdx,%rax
  403527:	48 8d 7d e0          	lea    -0x20(%rbp),%rdi
  40352b:	48 8d 75 d8          	lea    -0x28(%rbp),%rsi
  40352f:	48 8b 4d b8          	mov    -0x48(%rbp),%rcx
  403533:	48 83 ec 08          	sub    $0x8,%rsp
  403537:	48 83 ec 28          	sub    $0x28,%rsp
  40353b:	48 89 e2             	mov    %rsp,%rdx
  40353e:	4c 8b 00             	mov    (%rax),%r8
  403541:	4c 89 02             	mov    %r8,(%rdx)
  403544:	4c 8b 40 08          	mov    0x8(%rax),%r8
  403548:	4c 89 42 08          	mov    %r8,0x8(%rdx)
  40354c:	4c 8b 40 10          	mov    0x10(%rax),%r8
  403550:	4c 89 42 10          	mov    %r8,0x10(%rdx)
  403554:	4c 8b 40 18          	mov    0x18(%rax),%r8
  403558:	4c 89 42 18          	mov    %r8,0x18(%rdx)
  40355c:	8b 40 20             	mov    0x20(%rax),%eax
  40355f:	89 42 20             	mov    %eax,0x20(%rdx)
  403562:	48 89 fa             	mov    %rdi,%rdx
  403565:	48 89 cf             	mov    %rcx,%rdi
  403568:	e8 ee e2 ff ff       	callq  40185b <triangleDist>
  40356d:	48 83 c4 30          	add    $0x30,%rsp
  403571:	48 8b 45 a8          	mov    -0x58(%rbp),%rax
  403575:	f3 0f 10 00          	movss  (%rax),%xmm0
  403579:	f3 0f 10 4d d8       	movss  -0x28(%rbp),%xmm1
  40357e:	0f 2e c1             	ucomiss %xmm1,%xmm0
  403581:	76 25                	jbe    4035a8 <checkFaces+0xd2>
  403583:	f3 0f 10 45 d8       	movss  -0x28(%rbp),%xmm0
  403588:	48 8b 45 a8          	mov    -0x58(%rbp),%rax
  40358c:	f3 0f 11 00          	movss  %xmm0,(%rax)
  403590:	48 8d 4d e0          	lea    -0x20(%rbp),%rcx
  403594:	48 8b 45 b0          	mov    -0x50(%rbp),%rax
  403598:	ba 0c 00 00 00       	mov    $0xc,%edx
  40359d:	48 89 ce             	mov    %rcx,%rsi
  4035a0:	48 89 c7             	mov    %rax,%rdi
  4035a3:	e8 c8 db ff ff       	callq  401170 <memcpy@plt>
  4035a8:	83 45 dc 01          	addl   $0x1,-0x24(%rbp)
  4035ac:	8b 45 dc             	mov    -0x24(%rbp),%eax
  4035af:	3b 45 c4             	cmp    -0x3c(%rbp),%eax
  4035b2:	0f 82 54 ff ff ff    	jb     40350c <checkFaces+0x36>
  4035b8:	90                   	nop
  4035b9:	48 8b 45 f8          	mov    -0x8(%rbp),%rax
  4035bd:	64 48 33 04 25 28 00 	xor    %fs:0x28,%rax
  4035c4:	00 00 
  4035c6:	74 05                	je     4035cd <checkFaces+0xf7>
  4035c8:	e8 73 db ff ff       	callq  401140 <__stack_chk_fail@plt>
  4035cd:	c9                   	leaveq 
  4035ce:	c3                   	retq   

00000000004035cf <traverse>:
  4035cf:	55                   	push   %rbp
  4035d0:	48 89 e5             	mov    %rsp,%rbp
  4035d3:	48 83 ec 40          	sub    $0x40,%rsp
  4035d7:	48 89 7d d8          	mov    %rdi,-0x28(%rbp)
  4035db:	48 89 75 d0          	mov    %rsi,-0x30(%rbp)
  4035df:	48 89 55 c8          	mov    %rdx,-0x38(%rbp)
  4035e3:	48 89 4d c0          	mov    %rcx,-0x40(%rbp)
  4035e7:	48 8b 45 d8          	mov    -0x28(%rbp),%rax
  4035eb:	48 89 45 f0          	mov    %rax,-0x10(%rbp)
  4035ef:	eb 45                	jmp    403636 <traverse+0x67>
  4035f1:	48 8b 45 f0          	mov    -0x10(%rbp),%rax
  4035f5:	0f b6 40 0a          	movzbl 0xa(%rax),%eax
  4035f9:	0f b6 c0             	movzbl %al,%eax
  4035fc:	48 8d 14 85 00 00 00 	lea    0x0(,%rax,4),%rdx
  403603:	00 
  403604:	48 8b 45 d0          	mov    -0x30(%rbp),%rax
  403608:	48 01 d0             	add    %rdx,%rax
  40360b:	f3 0f 10 08          	movss  (%rax),%xmm1
  40360f:	48 8b 45 f0          	mov    -0x10(%rbp),%rax
  403613:	f3 0f 10 00          	movss  (%rax),%xmm0
  403617:	0f 2e c1             	ucomiss %xmm1,%xmm0
  40361a:	76 0e                	jbe    40362a <traverse+0x5b>
  40361c:	48 8b 45 f0          	mov    -0x10(%rbp),%rax
  403620:	48 8b 40 28          	mov    0x28(%rax),%rax
  403624:	48 89 45 f0          	mov    %rax,-0x10(%rbp)
  403628:	eb 0c                	jmp    403636 <traverse+0x67>
  40362a:	48 8b 45 f0          	mov    -0x10(%rbp),%rax
  40362e:	48 8b 40 30          	mov    0x30(%rax),%rax
  403632:	48 89 45 f0          	mov    %rax,-0x10(%rbp)
  403636:	48 8b 45 f0          	mov    -0x10(%rbp),%rax
  40363a:	48 8b 40 30          	mov    0x30(%rax),%rax
  40363e:	48 85 c0             	test   %rax,%rax
  403641:	75 ae                	jne    4035f1 <traverse+0x22>
  403643:	48 8b 45 f0          	mov    -0x10(%rbp),%rax
  403647:	0f b6 40 0a          	movzbl 0xa(%rax),%eax
  40364b:	0f b6 c0             	movzbl %al,%eax
  40364e:	48 8d 14 85 00 00 00 	lea    0x0(,%rax,4),%rdx
  403655:	00 
  403656:	48 8b 45 d0          	mov    -0x30(%rbp),%rax
  40365a:	48 01 d0             	add    %rdx,%rax
  40365d:	f3 0f 10 08          	movss  (%rax),%xmm1
  403661:	48 8b 45 f0          	mov    -0x10(%rbp),%rax
  403665:	f3 0f 10 00          	movss  (%rax),%xmm0
  403669:	0f 2e c1             	ucomiss %xmm1,%xmm0
  40366c:	76 20                	jbe    40368e <traverse+0xbf>
  40366e:	48 8b 45 f0          	mov    -0x10(%rbp),%rax
  403672:	48 8b 40 10          	mov    0x10(%rax),%rax
  403676:	48 89 45 f8          	mov    %rax,-0x8(%rbp)
  40367a:	48 8b 45 f0          	mov    -0x10(%rbp),%rax
  40367e:	0f b7 40 06          	movzwl 0x6(%rax),%eax
  403682:	0f b7 c0             	movzwl %ax,%eax
  403685:	89 45 e8             	mov    %eax,-0x18(%rbp)
  403688:	c6 45 e7 01          	movb   $0x1,-0x19(%rbp)
  40368c:	eb 1e                	jmp    4036ac <traverse+0xdd>
  40368e:	48 8b 45 f0          	mov    -0x10(%rbp),%rax
  403692:	48 8b 40 18          	mov    0x18(%rax),%rax
  403696:	48 89 45 f8          	mov    %rax,-0x8(%rbp)
  40369a:	48 8b 45 f0          	mov    -0x10(%rbp),%rax
  40369e:	0f b7 40 08          	movzwl 0x8(%rax),%eax
  4036a2:	0f b7 c0             	movzwl %ax,%eax
  4036a5:	89 45 e8             	mov    %eax,-0x18(%rbp)
  4036a8:	c6 45 e7 00          	movb   $0x0,-0x19(%rbp)
  4036ac:	48 8b 7d c0          	mov    -0x40(%rbp),%rdi
  4036b0:	48 8b 4d c8          	mov    -0x38(%rbp),%rcx
  4036b4:	48 8b 55 d0          	mov    -0x30(%rbp),%rdx
  4036b8:	8b 75 e8             	mov    -0x18(%rbp),%esi
  4036bb:	48 8b 45 f8          	mov    -0x8(%rbp),%rax
  4036bf:	49 89 f8             	mov    %rdi,%r8
  4036c2:	48 89 c7             	mov    %rax,%rdi
  4036c5:	e8 0c fe ff ff       	callq  4034d6 <checkFaces>
  4036ca:	48 8b 45 f0          	mov    -0x10(%rbp),%rax
  4036ce:	0f b6 40 0a          	movzbl 0xa(%rax),%eax
  4036d2:	0f b6 c0             	movzbl %al,%eax
  4036d5:	48 8d 14 85 00 00 00 	lea    0x0(,%rax,4),%rdx
  4036dc:	00 
  4036dd:	48 8b 45 d0          	mov    -0x30(%rbp),%rax
  4036e1:	48 01 d0             	add    %rdx,%rax
  4036e4:	f3 0f 10 00          	movss  (%rax),%xmm0
  4036e8:	48 8b 45 f0          	mov    -0x10(%rbp),%rax
  4036ec:	f3 0f 10 08          	movss  (%rax),%xmm1
  4036f0:	f3 0f 5c c1          	subss  %xmm1,%xmm0
  4036f4:	f3 0f 11 45 ec       	movss  %xmm0,-0x14(%rbp)
  4036f9:	f3 0f 10 45 ec       	movss  -0x14(%rbp),%xmm0
  4036fe:	f3 0f 59 45 ec       	mulss  -0x14(%rbp),%xmm0
  403703:	f3 0f 11 45 ec       	movss  %xmm0,-0x14(%rbp)
  403708:	48 8b 45 c0          	mov    -0x40(%rbp),%rax
  40370c:	f3 0f 10 00          	movss  (%rax),%xmm0
  403710:	0f 2e 45 ec          	ucomiss -0x14(%rbp),%xmm0
  403714:	76 5a                	jbe    403770 <traverse+0x1a1>
  403716:	80 7d e7 00          	cmpb   $0x0,-0x19(%rbp)
  40371a:	74 1c                	je     403738 <traverse+0x169>
  40371c:	48 8b 45 f0          	mov    -0x10(%rbp),%rax
  403720:	48 8b 40 18          	mov    0x18(%rax),%rax
  403724:	48 89 45 f8          	mov    %rax,-0x8(%rbp)
  403728:	48 8b 45 f0          	mov    -0x10(%rbp),%rax
  40372c:	0f b7 40 08          	movzwl 0x8(%rax),%eax
  403730:	0f b7 c0             	movzwl %ax,%eax
  403733:	89 45 e8             	mov    %eax,-0x18(%rbp)
  403736:	eb 1a                	jmp    403752 <traverse+0x183>
  403738:	48 8b 45 f0          	mov    -0x10(%rbp),%rax
  40373c:	48 8b 40 10          	mov    0x10(%rax),%rax
  403740:	48 89 45 f8          	mov    %rax,-0x8(%rbp)
  403744:	48 8b 45 f0          	mov    -0x10(%rbp),%rax
  403748:	0f b7 40 06          	movzwl 0x6(%rax),%eax
  40374c:	0f b7 c0             	movzwl %ax,%eax
  40374f:	89 45 e8             	mov    %eax,-0x18(%rbp)
  403752:	48 8b 7d c0          	mov    -0x40(%rbp),%rdi
  403756:	48 8b 4d c8          	mov    -0x38(%rbp),%rcx
  40375a:	48 8b 55 d0          	mov    -0x30(%rbp),%rdx
  40375e:	8b 75 e8             	mov    -0x18(%rbp),%esi
  403761:	48 8b 45 f8          	mov    -0x8(%rbp),%rax
  403765:	49 89 f8             	mov    %rdi,%r8
  403768:	48 89 c7             	mov    %rax,%rdi
  40376b:	e8 66 fd ff ff       	callq  4034d6 <checkFaces>
  403770:	48 8b 45 f0          	mov    -0x10(%rbp),%rax
  403774:	c9                   	leaveq 
  403775:	c3                   	retq   

0000000000403776 <kd_search>:
  403776:	55                   	push   %rbp
  403777:	48 89 e5             	mov    %rsp,%rbp
  40377a:	48 83 ec 50          	sub    $0x50,%rsp
  40377e:	48 89 7d c8          	mov    %rdi,-0x38(%rbp)
  403782:	48 89 75 c0          	mov    %rsi,-0x40(%rbp)
  403786:	48 89 55 b8          	mov    %rdx,-0x48(%rbp)
  40378a:	48 89 4d b0          	mov    %rcx,-0x50(%rbp)
  40378e:	64 48 8b 04 25 28 00 	mov    %fs:0x28,%rax
  403795:	00 00 
  403797:	48 89 45 f8          	mov    %rax,-0x8(%rbp)
  40379b:	31 c0                	xor    %eax,%eax
  40379d:	48 8b 45 b0          	mov    -0x50(%rbp),%rax
  4037a1:	48 89 45 d8          	mov    %rax,-0x28(%rbp)
  4037a5:	c6 45 d2 00          	movb   $0x0,-0x2e(%rbp)
  4037a9:	48 8b 4d b8          	mov    -0x48(%rbp),%rcx
  4037ad:	48 8b 55 c0          	mov    -0x40(%rbp),%rdx
  4037b1:	48 8b 75 c8          	mov    -0x38(%rbp),%rsi
  4037b5:	48 8b 45 d8          	mov    -0x28(%rbp),%rax
  4037b9:	48 89 c7             	mov    %rax,%rdi
  4037bc:	e8 0e fe ff ff       	callq  4035cf <traverse>
  4037c1:	48 89 45 d8          	mov    %rax,-0x28(%rbp)
  4037c5:	48 8b 45 d8          	mov    -0x28(%rbp),%rax
  4037c9:	0f b7 40 04          	movzwl 0x4(%rax),%eax
  4037cd:	88 45 e0             	mov    %al,-0x20(%rbp)
  4037d0:	48 8b 45 d8          	mov    -0x28(%rbp),%rax
  4037d4:	48 8b 40 30          	mov    0x30(%rax),%rax
  4037d8:	48 3b 45 d8          	cmp    -0x28(%rbp),%rax
  4037dc:	0f 94 c0             	sete   %al
  4037df:	88 45 d3             	mov    %al,-0x2d(%rbp)
  4037e2:	48 8b 45 d8          	mov    -0x28(%rbp),%rax
  4037e6:	48 8b 40 20          	mov    0x20(%rax),%rax
  4037ea:	48 89 45 d8          	mov    %rax,-0x28(%rbp)
  4037ee:	0f b6 45 d2          	movzbl -0x2e(%rbp),%eax
  4037f2:	83 c0 01             	add    $0x1,%eax
  4037f5:	88 45 d2             	mov    %al,-0x2e(%rbp)
  4037f8:	0f b6 45 d2          	movzbl -0x2e(%rbp),%eax
  4037fc:	48 98                	cltq   
  4037fe:	0f b6 44 05 e0       	movzbl -0x20(%rbp,%rax,1),%eax
  403803:	0f b6 d0             	movzbl %al,%edx
  403806:	48 8b 45 d8          	mov    -0x28(%rbp),%rax
  40380a:	0f b7 40 04          	movzwl 0x4(%rax),%eax
  40380e:	66 39 c2             	cmp    %ax,%dx
  403811:	0f 84 9d 00 00 00    	je     4038b4 <kd_search+0x13e>
  403817:	48 8b 45 d8          	mov    -0x28(%rbp),%rax
  40381b:	0f b6 40 0a          	movzbl 0xa(%rax),%eax
  40381f:	0f b6 c0             	movzbl %al,%eax
  403822:	48 8d 14 85 00 00 00 	lea    0x0(,%rax,4),%rdx
  403829:	00 
  40382a:	48 8b 45 c8          	mov    -0x38(%rbp),%rax
  40382e:	48 01 d0             	add    %rdx,%rax
  403831:	f3 0f 10 00          	movss  (%rax),%xmm0
  403835:	48 8b 45 d8          	mov    -0x28(%rbp),%rax
  403839:	f3 0f 10 08          	movss  (%rax),%xmm1
  40383d:	f3 0f 5c c1          	subss  %xmm1,%xmm0
  403841:	f3 0f 11 45 d4       	movss  %xmm0,-0x2c(%rbp)
  403846:	f3 0f 10 45 d4       	movss  -0x2c(%rbp),%xmm0
  40384b:	f3 0f 59 45 d4       	mulss  -0x2c(%rbp),%xmm0
  403850:	f3 0f 11 45 d4       	movss  %xmm0,-0x2c(%rbp)
  403855:	48 8b 45 b8          	mov    -0x48(%rbp),%rax
  403859:	f3 0f 10 00          	movss  (%rax),%xmm0
  40385d:	0f 2e 45 d4          	ucomiss -0x2c(%rbp),%xmm0
  403861:	76 51                	jbe    4038b4 <kd_search+0x13e>
  403863:	0f b6 55 d2          	movzbl -0x2e(%rbp),%edx
  403867:	48 8b 45 d8          	mov    -0x28(%rbp),%rax
  40386b:	0f b7 40 04          	movzwl 0x4(%rax),%eax
  40386f:	89 c1                	mov    %eax,%ecx
  403871:	48 63 c2             	movslq %edx,%rax
  403874:	88 4c 05 e0          	mov    %cl,-0x20(%rbp,%rax,1)
  403878:	c6 45 d2 00          	movb   $0x0,-0x2e(%rbp)
  40387c:	80 7d d3 00          	cmpb   $0x0,-0x2d(%rbp)
  403880:	74 0e                	je     403890 <kd_search+0x11a>
  403882:	48 8b 45 d8          	mov    -0x28(%rbp),%rax
  403886:	48 8b 40 30          	mov    0x30(%rax),%rax
  40388a:	48 89 45 d8          	mov    %rax,-0x28(%rbp)
  40388e:	eb 0c                	jmp    40389c <kd_search+0x126>
  403890:	48 8b 45 d8          	mov    -0x28(%rbp),%rax
  403894:	48 8b 40 28          	mov    0x28(%rax),%rax
  403898:	48 89 45 d8          	mov    %rax,-0x28(%rbp)
  40389c:	48 8b 4d b8          	mov    -0x48(%rbp),%rcx
  4038a0:	48 8b 55 c0          	mov    -0x40(%rbp),%rdx
  4038a4:	48 8b 75 c8          	mov    -0x38(%rbp),%rsi
  4038a8:	48 8b 45 d8          	mov    -0x28(%rbp),%rax
  4038ac:	48 89 c7             	mov    %rax,%rdi
  4038af:	e8 1b fd ff ff       	callq  4035cf <traverse>
  4038b4:	48 8b 45 d8          	mov    -0x28(%rbp),%rax
  4038b8:	48 8b 40 20          	mov    0x20(%rax),%rax
  4038bc:	48 85 c0             	test   %rax,%rax
  4038bf:	0f 85 0b ff ff ff    	jne    4037d0 <kd_search+0x5a>
  4038c5:	48 8b 45 b8          	mov    -0x48(%rbp),%rax
  4038c9:	f3 0f 10 00          	movss  (%rax),%xmm0
  4038cd:	f3 0f 5a c0          	cvtss2sd %xmm0,%xmm0
  4038d1:	e8 da d8 ff ff       	callq  4011b0 <sqrt@plt>
  4038d6:	f2 0f 5a c0          	cvtsd2ss %xmm0,%xmm0
  4038da:	48 8b 45 b8          	mov    -0x48(%rbp),%rax
  4038de:	f3 0f 11 00          	movss  %xmm0,(%rax)
  4038e2:	90                   	nop
  4038e3:	48 8b 45 f8          	mov    -0x8(%rbp),%rax
  4038e7:	64 48 33 04 25 28 00 	xor    %fs:0x28,%rax
  4038ee:	00 00 
  4038f0:	74 05                	je     4038f7 <kd_search+0x181>
  4038f2:	e8 49 d8 ff ff       	callq  401140 <__stack_chk_fail@plt>
  4038f7:	c9                   	leaveq 
  4038f8:	c3                   	retq   

00000000004038f9 <runSearch>:
  4038f9:	55                   	push   %rbp
  4038fa:	48 89 e5             	mov    %rsp,%rbp
  4038fd:	48 83 ec 40          	sub    $0x40,%rsp
  403901:	48 89 7d e8          	mov    %rdi,-0x18(%rbp)
  403905:	48 89 75 e0          	mov    %rsi,-0x20(%rbp)
  403909:	48 89 55 d8          	mov    %rdx,-0x28(%rbp)
  40390d:	48 89 4d d0          	mov    %rcx,-0x30(%rbp)
  403911:	44 89 45 cc          	mov    %r8d,-0x34(%rbp)
  403915:	c7 45 fc 00 00 00 00 	movl   $0x0,-0x4(%rbp)
  40391c:	eb 68                	jmp    403986 <runSearch+0x8d>
  40391e:	8b 45 fc             	mov    -0x4(%rbp),%eax
  403921:	48 8d 14 85 00 00 00 	lea    0x0(,%rax,4),%rdx
  403928:	00 
  403929:	48 8b 45 d8          	mov    -0x28(%rbp),%rax
  40392d:	48 01 d0             	add    %rdx,%rax
  403930:	f3 0f 10 05 68 4c 00 	movss  0x4c68(%rip),%xmm0        # 4085a0 <_IO_stdin_used+0xd0>
  403937:	00 
  403938:	f3 0f 11 00          	movss  %xmm0,(%rax)
  40393c:	8b 45 fc             	mov    -0x4(%rbp),%eax
  40393f:	48 8d 14 85 00 00 00 	lea    0x0(,%rax,4),%rdx
  403946:	00 
  403947:	48 8b 45 d8          	mov    -0x28(%rbp),%rax
  40394b:	48 01 c2             	add    %rax,%rdx
  40394e:	8b 45 fc             	mov    -0x4(%rbp),%eax
  403951:	48 c1 e0 04          	shl    $0x4,%rax
  403955:	48 89 c1             	mov    %rax,%rcx
  403958:	48 8b 45 e0          	mov    -0x20(%rbp),%rax
  40395c:	48 01 c8             	add    %rcx,%rax
  40395f:	48 89 c6             	mov    %rax,%rsi
  403962:	8b 45 fc             	mov    -0x4(%rbp),%eax
  403965:	48 c1 e0 04          	shl    $0x4,%rax
  403969:	48 89 c1             	mov    %rax,%rcx
  40396c:	48 8b 45 e8          	mov    -0x18(%rbp),%rax
  403970:	48 01 c8             	add    %rcx,%rax
  403973:	48 89 c7             	mov    %rax,%rdi
  403976:	48 8b 45 d0          	mov    -0x30(%rbp),%rax
  40397a:	48 89 c1             	mov    %rax,%rcx
  40397d:	e8 f4 fd ff ff       	callq  403776 <kd_search>
  403982:	83 45 fc 01          	addl   $0x1,-0x4(%rbp)
  403986:	8b 45 fc             	mov    -0x4(%rbp),%eax
  403989:	3b 45 cc             	cmp    -0x34(%rbp),%eax
  40398c:	72 90                	jb     40391e <runSearch+0x25>
  40398e:	90                   	nop
  40398f:	c9                   	leaveq 
  403990:	c3                   	retq   

0000000000403991 <deleteTree>:
  403991:	55                   	push   %rbp
  403992:	48 89 e5             	mov    %rsp,%rbp
  403995:	48 83 ec 10          	sub    $0x10,%rsp
  403999:	48 89 7d f8          	mov    %rdi,-0x8(%rbp)
  40399d:	89 f0                	mov    %esi,%eax
  40399f:	88 45 f4             	mov    %al,-0xc(%rbp)
  4039a2:	80 7d f4 07          	cmpb   $0x7,-0xc(%rbp)
  4039a6:	77 3a                	ja     4039e2 <deleteTree+0x51>
  4039a8:	0f b6 45 f4          	movzbl -0xc(%rbp),%eax
  4039ac:	83 c0 01             	add    $0x1,%eax
  4039af:	0f b6 d0             	movzbl %al,%edx
  4039b2:	48 8b 45 f8          	mov    -0x8(%rbp),%rax
  4039b6:	48 8b 40 28          	mov    0x28(%rax),%rax
  4039ba:	89 d6                	mov    %edx,%esi
  4039bc:	48 89 c7             	mov    %rax,%rdi
  4039bf:	e8 cd ff ff ff       	callq  403991 <deleteTree>
  4039c4:	0f b6 45 f4          	movzbl -0xc(%rbp),%eax
  4039c8:	83 c0 01             	add    $0x1,%eax
  4039cb:	0f b6 d0             	movzbl %al,%edx
  4039ce:	48 8b 45 f8          	mov    -0x8(%rbp),%rax
  4039d2:	48 8b 40 30          	mov    0x30(%rax),%rax
  4039d6:	89 d6                	mov    %edx,%esi
  4039d8:	48 89 c7             	mov    %rax,%rdi
  4039db:	e8 b1 ff ff ff       	callq  403991 <deleteTree>
  4039e0:	eb 20                	jmp    403a02 <deleteTree+0x71>
  4039e2:	48 8b 45 f8          	mov    -0x8(%rbp),%rax
  4039e6:	48 8b 40 10          	mov    0x10(%rax),%rax
  4039ea:	48 89 c7             	mov    %rax,%rdi
  4039ed:	e8 fe d6 ff ff       	callq  4010f0 <free@plt>
  4039f2:	48 8b 45 f8          	mov    -0x8(%rbp),%rax
  4039f6:	48 8b 40 18          	mov    0x18(%rax),%rax
  4039fa:	48 89 c7             	mov    %rax,%rdi
  4039fd:	e8 ee d6 ff ff       	callq  4010f0 <free@plt>
  403a02:	48 8b 45 f8          	mov    -0x8(%rbp),%rax
  403a06:	48 89 c7             	mov    %rax,%rdi
  403a09:	e8 e2 d6 ff ff       	callq  4010f0 <free@plt>
  403a0e:	90                   	nop
  403a0f:	c9                   	leaveq 
  403a10:	c3                   	retq   

0000000000403a11 <loadSTL>:
  403a11:	55                   	push   %rbp
  403a12:	48 89 e5             	mov    %rsp,%rbp
  403a15:	41 56                	push   %r14
  403a17:	41 55                	push   %r13
  403a19:	41 54                	push   %r12
  403a1b:	53                   	push   %rbx
  403a1c:	48 81 ec f0 00 00 00 	sub    $0xf0,%rsp
  403a23:	48 89 bd 38 ff ff ff 	mov    %rdi,-0xc8(%rbp)
  403a2a:	64 48 8b 04 25 28 00 	mov    %fs:0x28,%rax
  403a31:	00 00 
  403a33:	48 89 45 d8          	mov    %rax,-0x28(%rbp)
  403a37:	31 c0                	xor    %eax,%eax
  403a39:	48 89 e0             	mov    %rsp,%rax
  403a3c:	49 89 c4             	mov    %rax,%r12
  403a3f:	be a4 85 40 00       	mov    $0x4085a4,%esi
  403a44:	bf a6 85 40 00       	mov    $0x4085a6,%edi
  403a49:	e8 42 d7 ff ff       	callq  401190 <fopen@plt>
  403a4e:	48 89 85 58 ff ff ff 	mov    %rax,-0xa8(%rbp)
  403a55:	c7 85 48 ff ff ff 32 	movl   $0x32,-0xb8(%rbp)
  403a5c:	00 00 00 
  403a5f:	c7 85 4c ff ff ff 0c 	movl   $0xc,-0xb4(%rbp)
  403a66:	00 00 00 
  403a69:	48 8b 95 58 ff ff ff 	mov    -0xa8(%rbp),%rdx
  403a70:	48 8d 45 80          	lea    -0x80(%rbp),%rax
  403a74:	48 89 d1             	mov    %rdx,%rcx
  403a77:	ba 01 00 00 00       	mov    $0x1,%edx
  403a7c:	be 50 00 00 00       	mov    $0x50,%esi
  403a81:	48 89 c7             	mov    %rax,%rdi
  403a84:	e8 97 d6 ff ff       	callq  401120 <fread@plt>
  403a89:	48 8b 95 58 ff ff ff 	mov    -0xa8(%rbp),%rdx
  403a90:	48 8d 85 70 ff ff ff 	lea    -0x90(%rbp),%rax
  403a97:	48 89 d1             	mov    %rdx,%rcx
  403a9a:	ba 01 00 00 00       	mov    $0x1,%edx
  403a9f:	be 04 00 00 00       	mov    $0x4,%esi
  403aa4:	48 89 c7             	mov    %rax,%rdi
  403aa7:	e8 74 d6 ff ff       	callq  401120 <fread@plt>
  403aac:	48 8d 85 70 ff ff ff 	lea    -0x90(%rbp),%rax
  403ab3:	8b 00                	mov    (%rax),%eax
  403ab5:	89 85 50 ff ff ff    	mov    %eax,-0xb0(%rbp)
  403abb:	8b 85 50 ff ff ff    	mov    -0xb0(%rbp),%eax
  403ac1:	0f af 85 48 ff ff ff 	imul   -0xb8(%rbp),%eax
  403ac8:	89 c2                	mov    %eax,%edx
  403aca:	48 83 ea 01          	sub    $0x1,%rdx
  403ace:	48 89 95 60 ff ff ff 	mov    %rdx,-0xa0(%rbp)
  403ad5:	89 c2                	mov    %eax,%edx
  403ad7:	48 89 95 f0 fe ff ff 	mov    %rdx,-0x110(%rbp)
  403ade:	48 c7 85 f8 fe ff ff 	movq   $0x0,-0x108(%rbp)
  403ae5:	00 00 00 00 
  403ae9:	89 c2                	mov    %eax,%edx
  403aeb:	49 89 d5             	mov    %rdx,%r13
  403aee:	41 be 00 00 00 00    	mov    $0x0,%r14d
  403af4:	89 c2                	mov    %eax,%edx
  403af6:	b8 10 00 00 00       	mov    $0x10,%eax
  403afb:	48 83 e8 01          	sub    $0x1,%rax
  403aff:	48 01 d0             	add    %rdx,%rax
  403b02:	be 10 00 00 00       	mov    $0x10,%esi
  403b07:	ba 00 00 00 00       	mov    $0x0,%edx
  403b0c:	48 f7 f6             	div    %rsi
  403b0f:	48 6b c0 10          	imul   $0x10,%rax,%rax
  403b13:	48 29 c4             	sub    %rax,%rsp
  403b16:	48 89 e0             	mov    %rsp,%rax
  403b19:	48 83 c0 00          	add    $0x0,%rax
  403b1d:	48 89 85 68 ff ff ff 	mov    %rax,-0x98(%rbp)
  403b24:	8b 95 50 ff ff ff    	mov    -0xb0(%rbp),%edx
  403b2a:	8b b5 48 ff ff ff    	mov    -0xb8(%rbp),%esi
  403b30:	48 8b 85 68 ff ff ff 	mov    -0x98(%rbp),%rax
  403b37:	48 8b 8d 58 ff ff ff 	mov    -0xa8(%rbp),%rcx
  403b3e:	48 89 c7             	mov    %rax,%rdi
  403b41:	e8 da d5 ff ff       	callq  401120 <fread@plt>
  403b46:	8b 95 50 ff ff ff    	mov    -0xb0(%rbp),%edx
  403b4c:	48 89 d0             	mov    %rdx,%rax
  403b4f:	48 c1 e0 03          	shl    $0x3,%rax
  403b53:	48 01 d0             	add    %rdx,%rax
  403b56:	48 c1 e0 02          	shl    $0x2,%rax
  403b5a:	48 89 c7             	mov    %rax,%rdi
  403b5d:	e8 1e d6 ff ff       	callq  401180 <malloc@plt>
  403b62:	48 89 c2             	mov    %rax,%rdx
  403b65:	48 8b 85 38 ff ff ff 	mov    -0xc8(%rbp),%rax
  403b6c:	48 89 10             	mov    %rdx,(%rax)
  403b6f:	c7 85 44 ff ff ff 00 	movl   $0x0,-0xbc(%rbp)
  403b76:	00 00 00 
  403b79:	e9 99 00 00 00       	jmpq   403c17 <loadSTL+0x206>
  403b7e:	8b 85 44 ff ff ff    	mov    -0xbc(%rbp),%eax
  403b84:	0f af 85 48 ff ff ff 	imul   -0xb8(%rbp),%eax
  403b8b:	89 c2                	mov    %eax,%edx
  403b8d:	8b 85 4c ff ff ff    	mov    -0xb4(%rbp),%eax
  403b93:	01 d0                	add    %edx,%eax
  403b95:	89 85 54 ff ff ff    	mov    %eax,-0xac(%rbp)
  403b9b:	48 8b 85 38 ff ff ff 	mov    -0xc8(%rbp),%rax
  403ba2:	48 8b 08             	mov    (%rax),%rcx
  403ba5:	8b 95 44 ff ff ff    	mov    -0xbc(%rbp),%edx
  403bab:	48 89 d0             	mov    %rdx,%rax
  403bae:	48 c1 e0 03          	shl    $0x3,%rax
  403bb2:	48 01 d0             	add    %rdx,%rax
  403bb5:	48 c1 e0 02          	shl    $0x2,%rax
  403bb9:	48 8d 1c 01          	lea    (%rcx,%rax,1),%rbx
  403bbd:	48 8b 8d 68 ff ff ff 	mov    -0x98(%rbp),%rcx
  403bc4:	48 8d 85 00 ff ff ff 	lea    -0x100(%rbp),%rax
  403bcb:	8b 95 54 ff ff ff    	mov    -0xac(%rbp),%edx
  403bd1:	48 89 ce             	mov    %rcx,%rsi
  403bd4:	48 89 c7             	mov    %rax,%rdi
  403bd7:	e8 86 00 00 00       	callq  403c62 <createFace>
  403bdc:	48 8b 85 00 ff ff ff 	mov    -0x100(%rbp),%rax
  403be3:	48 89 03             	mov    %rax,(%rbx)
  403be6:	48 8b 85 08 ff ff ff 	mov    -0xf8(%rbp),%rax
  403bed:	48 89 43 08          	mov    %rax,0x8(%rbx)
  403bf1:	48 8b 85 10 ff ff ff 	mov    -0xf0(%rbp),%rax
  403bf8:	48 89 43 10          	mov    %rax,0x10(%rbx)
  403bfc:	48 8b 85 18 ff ff ff 	mov    -0xe8(%rbp),%rax
  403c03:	48 89 43 18          	mov    %rax,0x18(%rbx)
  403c07:	8b 85 20 ff ff ff    	mov    -0xe0(%rbp),%eax
  403c0d:	89 43 20             	mov    %eax,0x20(%rbx)
  403c10:	83 85 44 ff ff ff 01 	addl   $0x1,-0xbc(%rbp)
  403c17:	8b 85 44 ff ff ff    	mov    -0xbc(%rbp),%eax
  403c1d:	3b 85 50 ff ff ff    	cmp    -0xb0(%rbp),%eax
  403c23:	0f 82 55 ff ff ff    	jb     403b7e <loadSTL+0x16d>
  403c29:	48 8b 85 58 ff ff ff 	mov    -0xa8(%rbp),%rax
  403c30:	48 89 c7             	mov    %rax,%rdi
  403c33:	e8 f8 d4 ff ff       	callq  401130 <fclose@plt>
  403c38:	8b 85 50 ff ff ff    	mov    -0xb0(%rbp),%eax
  403c3e:	4c 89 e4             	mov    %r12,%rsp
  403c41:	48 8b 5d d8          	mov    -0x28(%rbp),%rbx
  403c45:	64 48 33 1c 25 28 00 	xor    %fs:0x28,%rbx
  403c4c:	00 00 
  403c4e:	74 05                	je     403c55 <loadSTL+0x244>
  403c50:	e8 eb d4 ff ff       	callq  401140 <__stack_chk_fail@plt>
  403c55:	48 8d 65 e0          	lea    -0x20(%rbp),%rsp
  403c59:	5b                   	pop    %rbx
  403c5a:	41 5c                	pop    %r12
  403c5c:	41 5d                	pop    %r13
  403c5e:	41 5e                	pop    %r14
  403c60:	5d                   	pop    %rbp
  403c61:	c3                   	retq   

0000000000403c62 <createFace>:
  403c62:	55                   	push   %rbp
  403c63:	48 89 e5             	mov    %rsp,%rbp
  403c66:	48 81 ec e0 00 00 00 	sub    $0xe0,%rsp
  403c6d:	48 89 bd 38 ff ff ff 	mov    %rdi,-0xc8(%rbp)
  403c74:	48 89 b5 30 ff ff ff 	mov    %rsi,-0xd0(%rbp)
  403c7b:	89 95 2c ff ff ff    	mov    %edx,-0xd4(%rbp)
  403c81:	64 48 8b 04 25 28 00 	mov    %fs:0x28,%rax
  403c88:	00 00 
  403c8a:	48 89 45 f8          	mov    %rax,-0x8(%rbp)
  403c8e:	31 c0                	xor    %eax,%eax
  403c90:	8b 95 2c ff ff ff    	mov    -0xd4(%rbp),%edx
  403c96:	48 8b 85 30 ff ff ff 	mov    -0xd0(%rbp),%rax
  403c9d:	48 01 d0             	add    %rdx,%rax
  403ca0:	0f b6 00             	movzbl (%rax),%eax
  403ca3:	88 85 70 ff ff ff    	mov    %al,-0x90(%rbp)
  403ca9:	8b 85 2c ff ff ff    	mov    -0xd4(%rbp),%eax
  403caf:	83 c0 01             	add    $0x1,%eax
  403cb2:	89 c2                	mov    %eax,%edx
  403cb4:	48 8b 85 30 ff ff ff 	mov    -0xd0(%rbp),%rax
  403cbb:	48 01 d0             	add    %rdx,%rax
  403cbe:	0f b6 00             	movzbl (%rax),%eax
  403cc1:	88 85 71 ff ff ff    	mov    %al,-0x8f(%rbp)
  403cc7:	8b 85 2c ff ff ff    	mov    -0xd4(%rbp),%eax
  403ccd:	83 c0 02             	add    $0x2,%eax
  403cd0:	89 c2                	mov    %eax,%edx
  403cd2:	48 8b 85 30 ff ff ff 	mov    -0xd0(%rbp),%rax
  403cd9:	48 01 d0             	add    %rdx,%rax
  403cdc:	0f b6 00             	movzbl (%rax),%eax
  403cdf:	88 85 72 ff ff ff    	mov    %al,-0x8e(%rbp)
  403ce5:	8b 85 2c ff ff ff    	mov    -0xd4(%rbp),%eax
  403ceb:	83 c0 03             	add    $0x3,%eax
  403cee:	89 c2                	mov    %eax,%edx
  403cf0:	48 8b 85 30 ff ff ff 	mov    -0xd0(%rbp),%rax
  403cf7:	48 01 d0             	add    %rdx,%rax
  403cfa:	0f b6 00             	movzbl (%rax),%eax
  403cfd:	88 85 73 ff ff ff    	mov    %al,-0x8d(%rbp)
  403d03:	8b 85 2c ff ff ff    	mov    -0xd4(%rbp),%eax
  403d09:	83 c0 04             	add    $0x4,%eax
  403d0c:	89 c2                	mov    %eax,%edx
  403d0e:	48 8b 85 30 ff ff ff 	mov    -0xd0(%rbp),%rax
  403d15:	48 01 d0             	add    %rdx,%rax
  403d18:	0f b6 00             	movzbl (%rax),%eax
  403d1b:	88 45 80             	mov    %al,-0x80(%rbp)
  403d1e:	8b 85 2c ff ff ff    	mov    -0xd4(%rbp),%eax
  403d24:	83 c0 05             	add    $0x5,%eax
  403d27:	89 c2                	mov    %eax,%edx
  403d29:	48 8b 85 30 ff ff ff 	mov    -0xd0(%rbp),%rax
  403d30:	48 01 d0             	add    %rdx,%rax
  403d33:	0f b6 00             	movzbl (%rax),%eax
  403d36:	88 45 81             	mov    %al,-0x7f(%rbp)
  403d39:	8b 85 2c ff ff ff    	mov    -0xd4(%rbp),%eax
  403d3f:	83 c0 06             	add    $0x6,%eax
  403d42:	89 c2                	mov    %eax,%edx
  403d44:	48 8b 85 30 ff ff ff 	mov    -0xd0(%rbp),%rax
  403d4b:	48 01 d0             	add    %rdx,%rax
  403d4e:	0f b6 00             	movzbl (%rax),%eax
  403d51:	88 45 82             	mov    %al,-0x7e(%rbp)
  403d54:	8b 85 2c ff ff ff    	mov    -0xd4(%rbp),%eax
  403d5a:	83 c0 07             	add    $0x7,%eax
  403d5d:	89 c2                	mov    %eax,%edx
  403d5f:	48 8b 85 30 ff ff ff 	mov    -0xd0(%rbp),%rax
  403d66:	48 01 d0             	add    %rdx,%rax
  403d69:	0f b6 00             	movzbl (%rax),%eax
  403d6c:	88 45 83             	mov    %al,-0x7d(%rbp)
  403d6f:	8b 85 2c ff ff ff    	mov    -0xd4(%rbp),%eax
  403d75:	83 c0 08             	add    $0x8,%eax
  403d78:	89 c2                	mov    %eax,%edx
  403d7a:	48 8b 85 30 ff ff ff 	mov    -0xd0(%rbp),%rax
  403d81:	48 01 d0             	add    %rdx,%rax
  403d84:	0f b6 00             	movzbl (%rax),%eax
  403d87:	88 45 90             	mov    %al,-0x70(%rbp)
  403d8a:	8b 85 2c ff ff ff    	mov    -0xd4(%rbp),%eax
  403d90:	83 c0 09             	add    $0x9,%eax
  403d93:	89 c2                	mov    %eax,%edx
  403d95:	48 8b 85 30 ff ff ff 	mov    -0xd0(%rbp),%rax
  403d9c:	48 01 d0             	add    %rdx,%rax
  403d9f:	0f b6 00             	movzbl (%rax),%eax
  403da2:	88 45 91             	mov    %al,-0x6f(%rbp)
  403da5:	8b 85 2c ff ff ff    	mov    -0xd4(%rbp),%eax
  403dab:	83 c0 0a             	add    $0xa,%eax
  403dae:	89 c2                	mov    %eax,%edx
  403db0:	48 8b 85 30 ff ff ff 	mov    -0xd0(%rbp),%rax
  403db7:	48 01 d0             	add    %rdx,%rax
  403dba:	0f b6 00             	movzbl (%rax),%eax
  403dbd:	88 45 92             	mov    %al,-0x6e(%rbp)
  403dc0:	8b 85 2c ff ff ff    	mov    -0xd4(%rbp),%eax
  403dc6:	83 c0 0b             	add    $0xb,%eax
  403dc9:	89 c2                	mov    %eax,%edx
  403dcb:	48 8b 85 30 ff ff ff 	mov    -0xd0(%rbp),%rax
  403dd2:	48 01 d0             	add    %rdx,%rax
  403dd5:	0f b6 00             	movzbl (%rax),%eax
  403dd8:	88 45 93             	mov    %al,-0x6d(%rbp)
  403ddb:	83 85 2c ff ff ff 0c 	addl   $0xc,-0xd4(%rbp)
  403de2:	8b 95 2c ff ff ff    	mov    -0xd4(%rbp),%edx
  403de8:	48 8b 85 30 ff ff ff 	mov    -0xd0(%rbp),%rax
  403def:	48 01 d0             	add    %rdx,%rax
  403df2:	0f b6 00             	movzbl (%rax),%eax
  403df5:	88 45 a0             	mov    %al,-0x60(%rbp)
  403df8:	8b 85 2c ff ff ff    	mov    -0xd4(%rbp),%eax
  403dfe:	83 c0 01             	add    $0x1,%eax
  403e01:	89 c2                	mov    %eax,%edx
  403e03:	48 8b 85 30 ff ff ff 	mov    -0xd0(%rbp),%rax
  403e0a:	48 01 d0             	add    %rdx,%rax
  403e0d:	0f b6 00             	movzbl (%rax),%eax
  403e10:	88 45 a1             	mov    %al,-0x5f(%rbp)
  403e13:	8b 85 2c ff ff ff    	mov    -0xd4(%rbp),%eax
  403e19:	83 c0 02             	add    $0x2,%eax
  403e1c:	89 c2                	mov    %eax,%edx
  403e1e:	48 8b 85 30 ff ff ff 	mov    -0xd0(%rbp),%rax
  403e25:	48 01 d0             	add    %rdx,%rax
  403e28:	0f b6 00             	movzbl (%rax),%eax
  403e2b:	88 45 a2             	mov    %al,-0x5e(%rbp)
  403e2e:	8b 85 2c ff ff ff    	mov    -0xd4(%rbp),%eax
  403e34:	83 c0 03             	add    $0x3,%eax
  403e37:	89 c2                	mov    %eax,%edx
  403e39:	48 8b 85 30 ff ff ff 	mov    -0xd0(%rbp),%rax
  403e40:	48 01 d0             	add    %rdx,%rax
  403e43:	0f b6 00             	movzbl (%rax),%eax
  403e46:	88 45 a3             	mov    %al,-0x5d(%rbp)
  403e49:	8b 85 2c ff ff ff    	mov    -0xd4(%rbp),%eax
  403e4f:	83 c0 04             	add    $0x4,%eax
  403e52:	89 c2                	mov    %eax,%edx
  403e54:	48 8b 85 30 ff ff ff 	mov    -0xd0(%rbp),%rax
  403e5b:	48 01 d0             	add    %rdx,%rax
  403e5e:	0f b6 00             	movzbl (%rax),%eax
  403e61:	88 45 b0             	mov    %al,-0x50(%rbp)
  403e64:	8b 85 2c ff ff ff    	mov    -0xd4(%rbp),%eax
  403e6a:	83 c0 05             	add    $0x5,%eax
  403e6d:	89 c2                	mov    %eax,%edx
  403e6f:	48 8b 85 30 ff ff ff 	mov    -0xd0(%rbp),%rax
  403e76:	48 01 d0             	add    %rdx,%rax
  403e79:	0f b6 00             	movzbl (%rax),%eax
  403e7c:	88 45 b1             	mov    %al,-0x4f(%rbp)
  403e7f:	8b 85 2c ff ff ff    	mov    -0xd4(%rbp),%eax
  403e85:	83 c0 06             	add    $0x6,%eax
  403e88:	89 c2                	mov    %eax,%edx
  403e8a:	48 8b 85 30 ff ff ff 	mov    -0xd0(%rbp),%rax
  403e91:	48 01 d0             	add    %rdx,%rax
  403e94:	0f b6 00             	movzbl (%rax),%eax
  403e97:	88 45 b2             	mov    %al,-0x4e(%rbp)
  403e9a:	8b 85 2c ff ff ff    	mov    -0xd4(%rbp),%eax
  403ea0:	83 c0 07             	add    $0x7,%eax
  403ea3:	89 c2                	mov    %eax,%edx
  403ea5:	48 8b 85 30 ff ff ff 	mov    -0xd0(%rbp),%rax
  403eac:	48 01 d0             	add    %rdx,%rax
  403eaf:	0f b6 00             	movzbl (%rax),%eax
  403eb2:	88 45 b3             	mov    %al,-0x4d(%rbp)
  403eb5:	8b 85 2c ff ff ff    	mov    -0xd4(%rbp),%eax
  403ebb:	83 c0 08             	add    $0x8,%eax
  403ebe:	89 c2                	mov    %eax,%edx
  403ec0:	48 8b 85 30 ff ff ff 	mov    -0xd0(%rbp),%rax
  403ec7:	48 01 d0             	add    %rdx,%rax
  403eca:	0f b6 00             	movzbl (%rax),%eax
  403ecd:	88 45 c0             	mov    %al,-0x40(%rbp)
  403ed0:	8b 85 2c ff ff ff    	mov    -0xd4(%rbp),%eax
  403ed6:	83 c0 09             	add    $0x9,%eax
  403ed9:	89 c2                	mov    %eax,%edx
  403edb:	48 8b 85 30 ff ff ff 	mov    -0xd0(%rbp),%rax
  403ee2:	48 01 d0             	add    %rdx,%rax
  403ee5:	0f b6 00             	movzbl (%rax),%eax
  403ee8:	88 45 c1             	mov    %al,-0x3f(%rbp)
  403eeb:	8b 85 2c ff ff ff    	mov    -0xd4(%rbp),%eax
  403ef1:	83 c0 0a             	add    $0xa,%eax
  403ef4:	89 c2                	mov    %eax,%edx
  403ef6:	48 8b 85 30 ff ff ff 	mov    -0xd0(%rbp),%rax
  403efd:	48 01 d0             	add    %rdx,%rax
  403f00:	0f b6 00             	movzbl (%rax),%eax
  403f03:	88 45 c2             	mov    %al,-0x3e(%rbp)
  403f06:	8b 85 2c ff ff ff    	mov    -0xd4(%rbp),%eax
  403f0c:	83 c0 0b             	add    $0xb,%eax
  403f0f:	89 c2                	mov    %eax,%edx
  403f11:	48 8b 85 30 ff ff ff 	mov    -0xd0(%rbp),%rax
  403f18:	48 01 d0             	add    %rdx,%rax
  403f1b:	0f b6 00             	movzbl (%rax),%eax
  403f1e:	88 45 c3             	mov    %al,-0x3d(%rbp)
  403f21:	83 85 2c ff ff ff 0c 	addl   $0xc,-0xd4(%rbp)
  403f28:	8b 95 2c ff ff ff    	mov    -0xd4(%rbp),%edx
  403f2e:	48 8b 85 30 ff ff ff 	mov    -0xd0(%rbp),%rax
  403f35:	48 01 d0             	add    %rdx,%rax
  403f38:	0f b6 00             	movzbl (%rax),%eax
  403f3b:	88 45 d0             	mov    %al,-0x30(%rbp)
  403f3e:	8b 85 2c ff ff ff    	mov    -0xd4(%rbp),%eax
  403f44:	83 c0 01             	add    $0x1,%eax
  403f47:	89 c2                	mov    %eax,%edx
  403f49:	48 8b 85 30 ff ff ff 	mov    -0xd0(%rbp),%rax
  403f50:	48 01 d0             	add    %rdx,%rax
  403f53:	0f b6 00             	movzbl (%rax),%eax
  403f56:	88 45 d1             	mov    %al,-0x2f(%rbp)
  403f59:	8b 85 2c ff ff ff    	mov    -0xd4(%rbp),%eax
  403f5f:	83 c0 02             	add    $0x2,%eax
  403f62:	89 c2                	mov    %eax,%edx
  403f64:	48 8b 85 30 ff ff ff 	mov    -0xd0(%rbp),%rax
  403f6b:	48 01 d0             	add    %rdx,%rax
  403f6e:	0f b6 00             	movzbl (%rax),%eax
  403f71:	88 45 d2             	mov    %al,-0x2e(%rbp)
  403f74:	8b 85 2c ff ff ff    	mov    -0xd4(%rbp),%eax
  403f7a:	83 c0 03             	add    $0x3,%eax
  403f7d:	89 c2                	mov    %eax,%edx
  403f7f:	48 8b 85 30 ff ff ff 	mov    -0xd0(%rbp),%rax
  403f86:	48 01 d0             	add    %rdx,%rax
  403f89:	0f b6 00             	movzbl (%rax),%eax
  403f8c:	88 45 d3             	mov    %al,-0x2d(%rbp)
  403f8f:	8b 85 2c ff ff ff    	mov    -0xd4(%rbp),%eax
  403f95:	83 c0 04             	add    $0x4,%eax
  403f98:	89 c2                	mov    %eax,%edx
  403f9a:	48 8b 85 30 ff ff ff 	mov    -0xd0(%rbp),%rax
  403fa1:	48 01 d0             	add    %rdx,%rax
  403fa4:	0f b6 00             	movzbl (%rax),%eax
  403fa7:	88 45 e0             	mov    %al,-0x20(%rbp)
  403faa:	8b 85 2c ff ff ff    	mov    -0xd4(%rbp),%eax
  403fb0:	83 c0 05             	add    $0x5,%eax
  403fb3:	89 c2                	mov    %eax,%edx
  403fb5:	48 8b 85 30 ff ff ff 	mov    -0xd0(%rbp),%rax
  403fbc:	48 01 d0             	add    %rdx,%rax
  403fbf:	0f b6 00             	movzbl (%rax),%eax
  403fc2:	88 45 e1             	mov    %al,-0x1f(%rbp)
  403fc5:	8b 85 2c ff ff ff    	mov    -0xd4(%rbp),%eax
  403fcb:	83 c0 06             	add    $0x6,%eax
  403fce:	89 c2                	mov    %eax,%edx
  403fd0:	48 8b 85 30 ff ff ff 	mov    -0xd0(%rbp),%rax
  403fd7:	48 01 d0             	add    %rdx,%rax
  403fda:	0f b6 00             	movzbl (%rax),%eax
  403fdd:	88 45 e2             	mov    %al,-0x1e(%rbp)
  403fe0:	8b 85 2c ff ff ff    	mov    -0xd4(%rbp),%eax
  403fe6:	83 c0 07             	add    $0x7,%eax
  403fe9:	89 c2                	mov    %eax,%edx
  403feb:	48 8b 85 30 ff ff ff 	mov    -0xd0(%rbp),%rax
  403ff2:	48 01 d0             	add    %rdx,%rax
  403ff5:	0f b6 00             	movzbl (%rax),%eax
  403ff8:	88 45 e3             	mov    %al,-0x1d(%rbp)
  403ffb:	8b 85 2c ff ff ff    	mov    -0xd4(%rbp),%eax
  404001:	83 c0 08             	add    $0x8,%eax
  404004:	89 c2                	mov    %eax,%edx
  404006:	48 8b 85 30 ff ff ff 	mov    -0xd0(%rbp),%rax
  40400d:	48 01 d0             	add    %rdx,%rax
  404010:	0f b6 00             	movzbl (%rax),%eax
  404013:	88 45 f0             	mov    %al,-0x10(%rbp)
  404016:	8b 85 2c ff ff ff    	mov    -0xd4(%rbp),%eax
  40401c:	83 c0 09             	add    $0x9,%eax
  40401f:	89 c2                	mov    %eax,%edx
  404021:	48 8b 85 30 ff ff ff 	mov    -0xd0(%rbp),%rax
  404028:	48 01 d0             	add    %rdx,%rax
  40402b:	0f b6 00             	movzbl (%rax),%eax
  40402e:	88 45 f1             	mov    %al,-0xf(%rbp)
  404031:	8b 85 2c ff ff ff    	mov    -0xd4(%rbp),%eax
  404037:	83 c0 0a             	add    $0xa,%eax
  40403a:	89 c2                	mov    %eax,%edx
  40403c:	48 8b 85 30 ff ff ff 	mov    -0xd0(%rbp),%rax
  404043:	48 01 d0             	add    %rdx,%rax
  404046:	0f b6 00             	movzbl (%rax),%eax
  404049:	88 45 f2             	mov    %al,-0xe(%rbp)
  40404c:	8b 85 2c ff ff ff    	mov    -0xd4(%rbp),%eax
  404052:	83 c0 0b             	add    $0xb,%eax
  404055:	89 c2                	mov    %eax,%edx
  404057:	48 8b 85 30 ff ff ff 	mov    -0xd0(%rbp),%rax
  40405e:	48 01 d0             	add    %rdx,%rax
  404061:	0f b6 00             	movzbl (%rax),%eax
  404064:	88 45 f3             	mov    %al,-0xd(%rbp)
  404067:	48 8d 85 70 ff ff ff 	lea    -0x90(%rbp),%rax
  40406e:	f3 0f 10 00          	movss  (%rax),%xmm0
  404072:	f3 0f 11 85 40 ff ff 	movss  %xmm0,-0xc0(%rbp)
  404079:	ff 
  40407a:	48 8d 45 80          	lea    -0x80(%rbp),%rax
  40407e:	f3 0f 10 00          	movss  (%rax),%xmm0
  404082:	f3 0f 11 85 44 ff ff 	movss  %xmm0,-0xbc(%rbp)
  404089:	ff 
  40408a:	48 8d 45 90          	lea    -0x70(%rbp),%rax
  40408e:	f3 0f 10 00          	movss  (%rax),%xmm0
  404092:	f3 0f 11 85 48 ff ff 	movss  %xmm0,-0xb8(%rbp)
  404099:	ff 
  40409a:	48 8d 45 a0          	lea    -0x60(%rbp),%rax
  40409e:	f3 0f 10 00          	movss  (%rax),%xmm0
  4040a2:	f3 0f 11 85 4c ff ff 	movss  %xmm0,-0xb4(%rbp)
  4040a9:	ff 
  4040aa:	48 8d 45 b0          	lea    -0x50(%rbp),%rax
  4040ae:	f3 0f 10 00          	movss  (%rax),%xmm0
  4040b2:	f3 0f 11 85 50 ff ff 	movss  %xmm0,-0xb0(%rbp)
  4040b9:	ff 
  4040ba:	48 8d 45 c0          	lea    -0x40(%rbp),%rax
  4040be:	f3 0f 10 00          	movss  (%rax),%xmm0
  4040c2:	f3 0f 11 85 54 ff ff 	movss  %xmm0,-0xac(%rbp)
  4040c9:	ff 
  4040ca:	48 8d 45 d0          	lea    -0x30(%rbp),%rax
  4040ce:	f3 0f 10 00          	movss  (%rax),%xmm0
  4040d2:	f3 0f 11 85 58 ff ff 	movss  %xmm0,-0xa8(%rbp)
  4040d9:	ff 
  4040da:	48 8d 45 e0          	lea    -0x20(%rbp),%rax
  4040de:	f3 0f 10 00          	movss  (%rax),%xmm0
  4040e2:	f3 0f 11 85 5c ff ff 	movss  %xmm0,-0xa4(%rbp)
  4040e9:	ff 
  4040ea:	48 8d 45 f0          	lea    -0x10(%rbp),%rax
  4040ee:	f3 0f 10 00          	movss  (%rax),%xmm0
  4040f2:	f3 0f 11 85 60 ff ff 	movss  %xmm0,-0xa0(%rbp)
  4040f9:	ff 
  4040fa:	48 8b 85 38 ff ff ff 	mov    -0xc8(%rbp),%rax
  404101:	48 8b 95 40 ff ff ff 	mov    -0xc0(%rbp),%rdx
  404108:	48 89 10             	mov    %rdx,(%rax)
  40410b:	48 8b 95 48 ff ff ff 	mov    -0xb8(%rbp),%rdx
  404112:	48 89 50 08          	mov    %rdx,0x8(%rax)
  404116:	48 8b 95 50 ff ff ff 	mov    -0xb0(%rbp),%rdx
  40411d:	48 89 50 10          	mov    %rdx,0x10(%rax)
  404121:	48 8b 95 58 ff ff ff 	mov    -0xa8(%rbp),%rdx
  404128:	48 89 50 18          	mov    %rdx,0x18(%rax)
  40412c:	8b 95 60 ff ff ff    	mov    -0xa0(%rbp),%edx
  404132:	89 50 20             	mov    %edx,0x20(%rax)
  404135:	48 8b 85 38 ff ff ff 	mov    -0xc8(%rbp),%rax
  40413c:	48 8b 4d f8          	mov    -0x8(%rbp),%rcx
  404140:	64 48 33 0c 25 28 00 	xor    %fs:0x28,%rcx
  404147:	00 00 
  404149:	74 05                	je     404150 <createFace+0x4ee>
  40414b:	e8 f0 cf ff ff       	callq  401140 <__stack_chk_fail@plt>
  404150:	c9                   	leaveq 
  404151:	c3                   	retq   

0000000000404152 <freeModel>:
  404152:	55                   	push   %rbp
  404153:	48 89 e5             	mov    %rsp,%rbp
  404156:	48 83 ec 10          	sub    $0x10,%rsp
  40415a:	48 89 7d f8          	mov    %rdi,-0x8(%rbp)
  40415e:	48 8b 45 f8          	mov    -0x8(%rbp),%rax
  404162:	48 89 c7             	mov    %rax,%rdi
  404165:	e8 86 cf ff ff       	callq  4010f0 <free@plt>
  40416a:	90                   	nop
  40416b:	c9                   	leaveq 
  40416c:	c3                   	retq   

000000000040416d <sub3D>:
  40416d:	55                   	push   %rbp
  40416e:	48 89 e5             	mov    %rsp,%rbp
  404171:	48 89 7d f8          	mov    %rdi,-0x8(%rbp)
  404175:	48 89 75 f0          	mov    %rsi,-0x10(%rbp)
  404179:	48 89 55 e8          	mov    %rdx,-0x18(%rbp)
  40417d:	48 8b 45 f8          	mov    -0x8(%rbp),%rax
  404181:	f3 0f 10 00          	movss  (%rax),%xmm0
  404185:	48 8b 45 f0          	mov    -0x10(%rbp),%rax
  404189:	f3 0f 10 08          	movss  (%rax),%xmm1
  40418d:	f3 0f 5c c1          	subss  %xmm1,%xmm0
  404191:	48 8b 45 e8          	mov    -0x18(%rbp),%rax
  404195:	f3 0f 11 00          	movss  %xmm0,(%rax)
  404199:	48 8b 45 e8          	mov    -0x18(%rbp),%rax
  40419d:	48 83 c0 04          	add    $0x4,%rax
  4041a1:	48 8b 55 f8          	mov    -0x8(%rbp),%rdx
  4041a5:	48 83 c2 04          	add    $0x4,%rdx
  4041a9:	f3 0f 10 02          	movss  (%rdx),%xmm0
  4041ad:	48 8b 55 f0          	mov    -0x10(%rbp),%rdx
  4041b1:	48 83 c2 04          	add    $0x4,%rdx
  4041b5:	f3 0f 10 0a          	movss  (%rdx),%xmm1
  4041b9:	f3 0f 5c c1          	subss  %xmm1,%xmm0
  4041bd:	f3 0f 11 00          	movss  %xmm0,(%rax)
  4041c1:	48 8b 45 e8          	mov    -0x18(%rbp),%rax
  4041c5:	48 83 c0 08          	add    $0x8,%rax
  4041c9:	48 8b 55 f8          	mov    -0x8(%rbp),%rdx
  4041cd:	48 83 c2 08          	add    $0x8,%rdx
  4041d1:	f3 0f 10 02          	movss  (%rdx),%xmm0
  4041d5:	48 8b 55 f0          	mov    -0x10(%rbp),%rdx
  4041d9:	48 83 c2 08          	add    $0x8,%rdx
  4041dd:	f3 0f 10 0a          	movss  (%rdx),%xmm1
  4041e1:	f3 0f 5c c1          	subss  %xmm1,%xmm0
  4041e5:	f3 0f 11 00          	movss  %xmm0,(%rax)
  4041e9:	90                   	nop
  4041ea:	5d                   	pop    %rbp
  4041eb:	c3                   	retq   

00000000004041ec <matMulVec4D>:
  4041ec:	55                   	push   %rbp
  4041ed:	48 89 e5             	mov    %rsp,%rbp
  4041f0:	48 89 7d f8          	mov    %rdi,-0x8(%rbp)
  4041f4:	48 89 75 f0          	mov    %rsi,-0x10(%rbp)
  4041f8:	48 89 55 e8          	mov    %rdx,-0x18(%rbp)
  4041fc:	48 8b 45 f8          	mov    -0x8(%rbp),%rax
  404200:	f3 0f 10 08          	movss  (%rax),%xmm1
  404204:	48 8b 45 f0          	mov    -0x10(%rbp),%rax
  404208:	f3 0f 10 00          	movss  (%rax),%xmm0
  40420c:	f3 0f 59 c8          	mulss  %xmm0,%xmm1
  404210:	48 8b 45 f8          	mov    -0x8(%rbp),%rax
  404214:	f3 0f 10 50 04       	movss  0x4(%rax),%xmm2
  404219:	48 8b 45 f0          	mov    -0x10(%rbp),%rax
  40421d:	48 83 c0 04          	add    $0x4,%rax
  404221:	f3 0f 10 00          	movss  (%rax),%xmm0
  404225:	f3 0f 59 c2          	mulss  %xmm2,%xmm0
  404229:	f3 0f 58 c8          	addss  %xmm0,%xmm1
  40422d:	48 8b 45 f8          	mov    -0x8(%rbp),%rax
  404231:	f3 0f 10 50 08       	movss  0x8(%rax),%xmm2
  404236:	48 8b 45 f0          	mov    -0x10(%rbp),%rax
  40423a:	48 83 c0 08          	add    $0x8,%rax
  40423e:	f3 0f 10 00          	movss  (%rax),%xmm0
  404242:	f3 0f 59 c2          	mulss  %xmm2,%xmm0
  404246:	f3 0f 58 c8          	addss  %xmm0,%xmm1
  40424a:	48 8b 45 f8          	mov    -0x8(%rbp),%rax
  40424e:	f3 0f 10 50 0c       	movss  0xc(%rax),%xmm2
  404253:	48 8b 45 f0          	mov    -0x10(%rbp),%rax
  404257:	48 83 c0 0c          	add    $0xc,%rax
  40425b:	f3 0f 10 00          	movss  (%rax),%xmm0
  40425f:	f3 0f 59 c2          	mulss  %xmm2,%xmm0
  404263:	f3 0f 58 c1          	addss  %xmm1,%xmm0
  404267:	48 8b 45 e8          	mov    -0x18(%rbp),%rax
  40426b:	f3 0f 11 00          	movss  %xmm0,(%rax)
  40426f:	48 8b 45 e8          	mov    -0x18(%rbp),%rax
  404273:	48 8d 50 04          	lea    0x4(%rax),%rdx
  404277:	48 8b 45 f8          	mov    -0x8(%rbp),%rax
  40427b:	48 83 c0 10          	add    $0x10,%rax
  40427f:	f3 0f 10 08          	movss  (%rax),%xmm1
  404283:	48 8b 45 f0          	mov    -0x10(%rbp),%rax
  404287:	f3 0f 10 00          	movss  (%rax),%xmm0
  40428b:	f3 0f 59 c8          	mulss  %xmm0,%xmm1
  40428f:	48 8b 45 f8          	mov    -0x8(%rbp),%rax
  404293:	48 83 c0 10          	add    $0x10,%rax
  404297:	f3 0f 10 50 04       	movss  0x4(%rax),%xmm2
  40429c:	48 8b 45 f0          	mov    -0x10(%rbp),%rax
  4042a0:	48 83 c0 04          	add    $0x4,%rax
  4042a4:	f3 0f 10 00          	movss  (%rax),%xmm0
  4042a8:	f3 0f 59 c2          	mulss  %xmm2,%xmm0
  4042ac:	f3 0f 58 c8          	addss  %xmm0,%xmm1
  4042b0:	48 8b 45 f8          	mov    -0x8(%rbp),%rax
  4042b4:	48 83 c0 10          	add    $0x10,%rax
  4042b8:	f3 0f 10 50 08       	movss  0x8(%rax),%xmm2
  4042bd:	48 8b 45 f0          	mov    -0x10(%rbp),%rax
  4042c1:	48 83 c0 08          	add    $0x8,%rax
  4042c5:	f3 0f 10 00          	movss  (%rax),%xmm0
  4042c9:	f3 0f 59 c2          	mulss  %xmm2,%xmm0
  4042cd:	f3 0f 58 c8          	addss  %xmm0,%xmm1
  4042d1:	48 8b 45 f8          	mov    -0x8(%rbp),%rax
  4042d5:	48 83 c0 10          	add    $0x10,%rax
  4042d9:	f3 0f 10 50 0c       	movss  0xc(%rax),%xmm2
  4042de:	48 8b 45 f0          	mov    -0x10(%rbp),%rax
  4042e2:	48 83 c0 0c          	add    $0xc,%rax
  4042e6:	f3 0f 10 00          	movss  (%rax),%xmm0
  4042ea:	f3 0f 59 c2          	mulss  %xmm2,%xmm0
  4042ee:	f3 0f 58 c1          	addss  %xmm1,%xmm0
  4042f2:	f3 0f 11 02          	movss  %xmm0,(%rdx)
  4042f6:	48 8b 45 e8          	mov    -0x18(%rbp),%rax
  4042fa:	48 8d 50 08          	lea    0x8(%rax),%rdx
  4042fe:	48 8b 45 f8          	mov    -0x8(%rbp),%rax
  404302:	48 83 c0 20          	add    $0x20,%rax
  404306:	f3 0f 10 08          	movss  (%rax),%xmm1
  40430a:	48 8b 45 f0          	mov    -0x10(%rbp),%rax
  40430e:	f3 0f 10 00          	movss  (%rax),%xmm0
  404312:	f3 0f 59 c8          	mulss  %xmm0,%xmm1
  404316:	48 8b 45 f8          	mov    -0x8(%rbp),%rax
  40431a:	48 83 c0 20          	add    $0x20,%rax
  40431e:	f3 0f 10 50 04       	movss  0x4(%rax),%xmm2
  404323:	48 8b 45 f0          	mov    -0x10(%rbp),%rax
  404327:	48 83 c0 04          	add    $0x4,%rax
  40432b:	f3 0f 10 00          	movss  (%rax),%xmm0
  40432f:	f3 0f 59 c2          	mulss  %xmm2,%xmm0
  404333:	f3 0f 58 c8          	addss  %xmm0,%xmm1
  404337:	48 8b 45 f8          	mov    -0x8(%rbp),%rax
  40433b:	48 83 c0 20          	add    $0x20,%rax
  40433f:	f3 0f 10 50 08       	movss  0x8(%rax),%xmm2
  404344:	48 8b 45 f0          	mov    -0x10(%rbp),%rax
  404348:	48 83 c0 08          	add    $0x8,%rax
  40434c:	f3 0f 10 00          	movss  (%rax),%xmm0
  404350:	f3 0f 59 c2          	mulss  %xmm2,%xmm0
  404354:	f3 0f 58 c8          	addss  %xmm0,%xmm1
  404358:	48 8b 45 f8          	mov    -0x8(%rbp),%rax
  40435c:	48 83 c0 20          	add    $0x20,%rax
  404360:	f3 0f 10 50 0c       	movss  0xc(%rax),%xmm2
  404365:	48 8b 45 f0          	mov    -0x10(%rbp),%rax
  404369:	48 83 c0 0c          	add    $0xc,%rax
  40436d:	f3 0f 10 00          	movss  (%rax),%xmm0
  404371:	f3 0f 59 c2          	mulss  %xmm2,%xmm0
  404375:	f3 0f 58 c1          	addss  %xmm1,%xmm0
  404379:	f3 0f 11 02          	movss  %xmm0,(%rdx)
  40437d:	48 8b 45 e8          	mov    -0x18(%rbp),%rax
  404381:	48 8d 50 0c          	lea    0xc(%rax),%rdx
  404385:	48 8b 45 f8          	mov    -0x8(%rbp),%rax
  404389:	48 83 c0 30          	add    $0x30,%rax
  40438d:	f3 0f 10 08          	movss  (%rax),%xmm1
  404391:	48 8b 45 f0          	mov    -0x10(%rbp),%rax
  404395:	f3 0f 10 00          	movss  (%rax),%xmm0
  404399:	f3 0f 59 c8          	mulss  %xmm0,%xmm1
  40439d:	48 8b 45 f8          	mov    -0x8(%rbp),%rax
  4043a1:	48 83 c0 30          	add    $0x30,%rax
  4043a5:	f3 0f 10 50 04       	movss  0x4(%rax),%xmm2
  4043aa:	48 8b 45 f0          	mov    -0x10(%rbp),%rax
  4043ae:	48 83 c0 04          	add    $0x4,%rax
  4043b2:	f3 0f 10 00          	movss  (%rax),%xmm0
  4043b6:	f3 0f 59 c2          	mulss  %xmm2,%xmm0
  4043ba:	f3 0f 58 c8          	addss  %xmm0,%xmm1
  4043be:	48 8b 45 f8          	mov    -0x8(%rbp),%rax
  4043c2:	48 83 c0 30          	add    $0x30,%rax
  4043c6:	f3 0f 10 50 08       	movss  0x8(%rax),%xmm2
  4043cb:	48 8b 45 f0          	mov    -0x10(%rbp),%rax
  4043cf:	48 83 c0 08          	add    $0x8,%rax
  4043d3:	f3 0f 10 00          	movss  (%rax),%xmm0
  4043d7:	f3 0f 59 c2          	mulss  %xmm2,%xmm0
  4043db:	f3 0f 58 c8          	addss  %xmm0,%xmm1
  4043df:	48 8b 45 f8          	mov    -0x8(%rbp),%rax
  4043e3:	48 83 c0 30          	add    $0x30,%rax
  4043e7:	f3 0f 10 50 0c       	movss  0xc(%rax),%xmm2
  4043ec:	48 8b 45 f0          	mov    -0x10(%rbp),%rax
  4043f0:	48 83 c0 0c          	add    $0xc,%rax
  4043f4:	f3 0f 10 00          	movss  (%rax),%xmm0
  4043f8:	f3 0f 59 c2          	mulss  %xmm2,%xmm0
  4043fc:	f3 0f 58 c1          	addss  %xmm1,%xmm0
  404400:	f3 0f 11 02          	movss  %xmm0,(%rdx)
  404404:	90                   	nop
  404405:	5d                   	pop    %rbp
  404406:	c3                   	retq   

0000000000404407 <matMulVec3D>:
  404407:	55                   	push   %rbp
  404408:	48 89 e5             	mov    %rsp,%rbp
  40440b:	48 89 7d f8          	mov    %rdi,-0x8(%rbp)
  40440f:	48 89 75 f0          	mov    %rsi,-0x10(%rbp)
  404413:	48 89 55 e8          	mov    %rdx,-0x18(%rbp)
  404417:	48 8b 45 f8          	mov    -0x8(%rbp),%rax
  40441b:	f3 0f 10 08          	movss  (%rax),%xmm1
  40441f:	48 8b 45 f0          	mov    -0x10(%rbp),%rax
  404423:	f3 0f 10 00          	movss  (%rax),%xmm0
  404427:	f3 0f 59 c8          	mulss  %xmm0,%xmm1
  40442b:	48 8b 45 f8          	mov    -0x8(%rbp),%rax
  40442f:	f3 0f 10 50 04       	movss  0x4(%rax),%xmm2
  404434:	48 8b 45 f0          	mov    -0x10(%rbp),%rax
  404438:	48 83 c0 04          	add    $0x4,%rax
  40443c:	f3 0f 10 00          	movss  (%rax),%xmm0
  404440:	f3 0f 59 c2          	mulss  %xmm2,%xmm0
  404444:	f3 0f 58 c8          	addss  %xmm0,%xmm1
  404448:	48 8b 45 f8          	mov    -0x8(%rbp),%rax
  40444c:	f3 0f 10 50 08       	movss  0x8(%rax),%xmm2
  404451:	48 8b 45 f0          	mov    -0x10(%rbp),%rax
  404455:	48 83 c0 08          	add    $0x8,%rax
  404459:	f3 0f 10 00          	movss  (%rax),%xmm0
  40445d:	f3 0f 59 c2          	mulss  %xmm2,%xmm0
  404461:	f3 0f 58 c8          	addss  %xmm0,%xmm1
  404465:	48 8b 45 f8          	mov    -0x8(%rbp),%rax
  404469:	f3 0f 10 50 0c       	movss  0xc(%rax),%xmm2
  40446e:	48 8b 45 f0          	mov    -0x10(%rbp),%rax
  404472:	48 83 c0 0c          	add    $0xc,%rax
  404476:	f3 0f 10 00          	movss  (%rax),%xmm0
  40447a:	f3 0f 59 c2          	mulss  %xmm2,%xmm0
  40447e:	f3 0f 58 c1          	addss  %xmm1,%xmm0
  404482:	48 8b 45 e8          	mov    -0x18(%rbp),%rax
  404486:	f3 0f 11 00          	movss  %xmm0,(%rax)
  40448a:	48 8b 45 e8          	mov    -0x18(%rbp),%rax
  40448e:	48 8d 50 04          	lea    0x4(%rax),%rdx
  404492:	48 8b 45 f8          	mov    -0x8(%rbp),%rax
  404496:	48 83 c0 0c          	add    $0xc,%rax
  40449a:	f3 0f 10 08          	movss  (%rax),%xmm1
  40449e:	48 8b 45 f0          	mov    -0x10(%rbp),%rax
  4044a2:	f3 0f 10 00          	movss  (%rax),%xmm0
  4044a6:	f3 0f 59 c8          	mulss  %xmm0,%xmm1
  4044aa:	48 8b 45 f8          	mov    -0x8(%rbp),%rax
  4044ae:	48 83 c0 0c          	add    $0xc,%rax
  4044b2:	f3 0f 10 50 04       	movss  0x4(%rax),%xmm2
  4044b7:	48 8b 45 f0          	mov    -0x10(%rbp),%rax
  4044bb:	48 83 c0 04          	add    $0x4,%rax
  4044bf:	f3 0f 10 00          	movss  (%rax),%xmm0
  4044c3:	f3 0f 59 c2          	mulss  %xmm2,%xmm0
  4044c7:	f3 0f 58 c8          	addss  %xmm0,%xmm1
  4044cb:	48 8b 45 f8          	mov    -0x8(%rbp),%rax
  4044cf:	48 83 c0 0c          	add    $0xc,%rax
  4044d3:	f3 0f 10 50 08       	movss  0x8(%rax),%xmm2
  4044d8:	48 8b 45 f0          	mov    -0x10(%rbp),%rax
  4044dc:	48 83 c0 08          	add    $0x8,%rax
  4044e0:	f3 0f 10 00          	movss  (%rax),%xmm0
  4044e4:	f3 0f 59 c2          	mulss  %xmm2,%xmm0
  4044e8:	f3 0f 58 c8          	addss  %xmm0,%xmm1
  4044ec:	48 8b 45 f8          	mov    -0x8(%rbp),%rax
  4044f0:	48 83 c0 0c          	add    $0xc,%rax
  4044f4:	f3 0f 10 50 0c       	movss  0xc(%rax),%xmm2
  4044f9:	48 8b 45 f0          	mov    -0x10(%rbp),%rax
  4044fd:	48 83 c0 0c          	add    $0xc,%rax
  404501:	f3 0f 10 00          	movss  (%rax),%xmm0
  404505:	f3 0f 59 c2          	mulss  %xmm2,%xmm0
  404509:	f3 0f 58 c1          	addss  %xmm1,%xmm0
  40450d:	f3 0f 11 02          	movss  %xmm0,(%rdx)
  404511:	48 8b 45 e8          	mov    -0x18(%rbp),%rax
  404515:	48 8d 50 08          	lea    0x8(%rax),%rdx
  404519:	48 8b 45 f8          	mov    -0x8(%rbp),%rax
  40451d:	48 83 c0 18          	add    $0x18,%rax
  404521:	f3 0f 10 08          	movss  (%rax),%xmm1
  404525:	48 8b 45 f0          	mov    -0x10(%rbp),%rax
  404529:	f3 0f 10 00          	movss  (%rax),%xmm0
  40452d:	f3 0f 59 c8          	mulss  %xmm0,%xmm1
  404531:	48 8b 45 f8          	mov    -0x8(%rbp),%rax
  404535:	48 83 c0 18          	add    $0x18,%rax
  404539:	f3 0f 10 50 04       	movss  0x4(%rax),%xmm2
  40453e:	48 8b 45 f0          	mov    -0x10(%rbp),%rax
  404542:	48 83 c0 04          	add    $0x4,%rax
  404546:	f3 0f 10 00          	movss  (%rax),%xmm0
  40454a:	f3 0f 59 c2          	mulss  %xmm2,%xmm0
  40454e:	f3 0f 58 c8          	addss  %xmm0,%xmm1
  404552:	48 8b 45 f8          	mov    -0x8(%rbp),%rax
  404556:	48 83 c0 18          	add    $0x18,%rax
  40455a:	f3 0f 10 50 08       	movss  0x8(%rax),%xmm2
  40455f:	48 8b 45 f0          	mov    -0x10(%rbp),%rax
  404563:	48 83 c0 08          	add    $0x8,%rax
  404567:	f3 0f 10 00          	movss  (%rax),%xmm0
  40456b:	f3 0f 59 c2          	mulss  %xmm2,%xmm0
  40456f:	f3 0f 58 c8          	addss  %xmm0,%xmm1
  404573:	48 8b 45 f8          	mov    -0x8(%rbp),%rax
  404577:	48 83 c0 18          	add    $0x18,%rax
  40457b:	f3 0f 10 50 0c       	movss  0xc(%rax),%xmm2
  404580:	48 8b 45 f0          	mov    -0x10(%rbp),%rax
  404584:	48 83 c0 0c          	add    $0xc,%rax
  404588:	f3 0f 10 00          	movss  (%rax),%xmm0
  40458c:	f3 0f 59 c2          	mulss  %xmm2,%xmm0
  404590:	f3 0f 58 c1          	addss  %xmm1,%xmm0
  404594:	f3 0f 11 02          	movss  %xmm0,(%rdx)
  404598:	90                   	nop
  404599:	5d                   	pop    %rbp
  40459a:	c3                   	retq   

000000000040459b <meanVec>:
  40459b:	55                   	push   %rbp
  40459c:	48 89 e5             	mov    %rsp,%rbp
  40459f:	48 89 7d e8          	mov    %rdi,-0x18(%rbp)
  4045a3:	48 89 75 e0          	mov    %rsi,-0x20(%rbp)
  4045a7:	89 55 dc             	mov    %edx,-0x24(%rbp)
  4045aa:	c7 45 fc 00 00 00 00 	movl   $0x0,-0x4(%rbp)
  4045b1:	eb 2e                	jmp    4045e1 <meanVec+0x46>
  4045b3:	48 8b 45 e0          	mov    -0x20(%rbp),%rax
  4045b7:	f3 0f 10 08          	movss  (%rax),%xmm1
  4045bb:	8b 45 fc             	mov    -0x4(%rbp),%eax
  4045be:	48 8d 14 85 00 00 00 	lea    0x0(,%rax,4),%rdx
  4045c5:	00 
  4045c6:	48 8b 45 e8          	mov    -0x18(%rbp),%rax
  4045ca:	48 01 d0             	add    %rdx,%rax
  4045cd:	f3 0f 10 00          	movss  (%rax),%xmm0
  4045d1:	f3 0f 58 c1          	addss  %xmm1,%xmm0
  4045d5:	48 8b 45 e0          	mov    -0x20(%rbp),%rax
  4045d9:	f3 0f 11 00          	movss  %xmm0,(%rax)
  4045dd:	83 45 fc 01          	addl   $0x1,-0x4(%rbp)
  4045e1:	8b 45 fc             	mov    -0x4(%rbp),%eax
  4045e4:	3b 45 dc             	cmp    -0x24(%rbp),%eax
  4045e7:	72 ca                	jb     4045b3 <meanVec+0x18>
  4045e9:	48 8b 45 e0          	mov    -0x20(%rbp),%rax
  4045ed:	f3 0f 10 08          	movss  (%rax),%xmm1
  4045f1:	8b 45 dc             	mov    -0x24(%rbp),%eax
  4045f4:	48 85 c0             	test   %rax,%rax
  4045f7:	78 0b                	js     404604 <meanVec+0x69>
  4045f9:	66 0f ef c0          	pxor   %xmm0,%xmm0
  4045fd:	f3 48 0f 2a c0       	cvtsi2ss %rax,%xmm0
  404602:	eb 19                	jmp    40461d <meanVec+0x82>
  404604:	48 89 c2             	mov    %rax,%rdx
  404607:	48 d1 ea             	shr    %rdx
  40460a:	83 e0 01             	and    $0x1,%eax
  40460d:	48 09 c2             	or     %rax,%rdx
  404610:	66 0f ef c0          	pxor   %xmm0,%xmm0
  404614:	f3 48 0f 2a c2       	cvtsi2ss %rdx,%xmm0
  404619:	f3 0f 58 c0          	addss  %xmm0,%xmm0
  40461d:	f3 0f 5e c8          	divss  %xmm0,%xmm1
  404621:	0f 28 c1             	movaps %xmm1,%xmm0
  404624:	48 8b 45 e0          	mov    -0x20(%rbp),%rax
  404628:	f3 0f 11 00          	movss  %xmm0,(%rax)
  40462c:	90                   	nop
  40462d:	5d                   	pop    %rbp
  40462e:	c3                   	retq   

000000000040462f <transpose>:
  40462f:	55                   	push   %rbp
  404630:	48 89 e5             	mov    %rsp,%rbp
  404633:	48 89 7d f8          	mov    %rdi,-0x8(%rbp)
  404637:	48 89 75 f0          	mov    %rsi,-0x10(%rbp)
  40463b:	48 8b 45 f8          	mov    -0x8(%rbp),%rax
  40463f:	f3 0f 10 00          	movss  (%rax),%xmm0
  404643:	48 8b 45 f0          	mov    -0x10(%rbp),%rax
  404647:	f3 0f 11 00          	movss  %xmm0,(%rax)
  40464b:	48 8b 45 f8          	mov    -0x8(%rbp),%rax
  40464f:	48 83 c0 0c          	add    $0xc,%rax
  404653:	f3 0f 10 00          	movss  (%rax),%xmm0
  404657:	48 8b 45 f0          	mov    -0x10(%rbp),%rax
  40465b:	f3 0f 11 40 04       	movss  %xmm0,0x4(%rax)
  404660:	48 8b 45 f8          	mov    -0x8(%rbp),%rax
  404664:	48 83 c0 18          	add    $0x18,%rax
  404668:	f3 0f 10 00          	movss  (%rax),%xmm0
  40466c:	48 8b 45 f0          	mov    -0x10(%rbp),%rax
  404670:	f3 0f 11 40 08       	movss  %xmm0,0x8(%rax)
  404675:	48 8b 45 f0          	mov    -0x10(%rbp),%rax
  404679:	48 8d 50 0c          	lea    0xc(%rax),%rdx
  40467d:	48 8b 45 f8          	mov    -0x8(%rbp),%rax
  404681:	f3 0f 10 40 04       	movss  0x4(%rax),%xmm0
  404686:	f3 0f 11 02          	movss  %xmm0,(%rdx)
  40468a:	48 8b 45 f0          	mov    -0x10(%rbp),%rax
  40468e:	48 83 c0 0c          	add    $0xc,%rax
  404692:	48 8b 55 f8          	mov    -0x8(%rbp),%rdx
  404696:	48 83 c2 0c          	add    $0xc,%rdx
  40469a:	f3 0f 10 42 04       	movss  0x4(%rdx),%xmm0
  40469f:	f3 0f 11 40 04       	movss  %xmm0,0x4(%rax)
  4046a4:	48 8b 45 f0          	mov    -0x10(%rbp),%rax
  4046a8:	48 83 c0 0c          	add    $0xc,%rax
  4046ac:	48 8b 55 f8          	mov    -0x8(%rbp),%rdx
  4046b0:	48 83 c2 18          	add    $0x18,%rdx
  4046b4:	f3 0f 10 42 04       	movss  0x4(%rdx),%xmm0
  4046b9:	f3 0f 11 40 08       	movss  %xmm0,0x8(%rax)
  4046be:	48 8b 45 f0          	mov    -0x10(%rbp),%rax
  4046c2:	48 8d 50 18          	lea    0x18(%rax),%rdx
  4046c6:	48 8b 45 f8          	mov    -0x8(%rbp),%rax
  4046ca:	f3 0f 10 40 08       	movss  0x8(%rax),%xmm0
  4046cf:	f3 0f 11 02          	movss  %xmm0,(%rdx)
  4046d3:	48 8b 45 f0          	mov    -0x10(%rbp),%rax
  4046d7:	48 83 c0 18          	add    $0x18,%rax
  4046db:	48 8b 55 f8          	mov    -0x8(%rbp),%rdx
  4046df:	48 83 c2 0c          	add    $0xc,%rdx
  4046e3:	f3 0f 10 42 08       	movss  0x8(%rdx),%xmm0
  4046e8:	f3 0f 11 40 04       	movss  %xmm0,0x4(%rax)
  4046ed:	48 8b 45 f0          	mov    -0x10(%rbp),%rax
  4046f1:	48 83 c0 18          	add    $0x18,%rax
  4046f5:	48 8b 55 f8          	mov    -0x8(%rbp),%rdx
  4046f9:	48 83 c2 18          	add    $0x18,%rdx
  4046fd:	f3 0f 10 42 08       	movss  0x8(%rdx),%xmm0
  404702:	f3 0f 11 40 08       	movss  %xmm0,0x8(%rax)
  404707:	90                   	nop
  404708:	5d                   	pop    %rbp
  404709:	c3                   	retq   

000000000040470a <getMat>:
  40470a:	55                   	push   %rbp
  40470b:	48 89 e5             	mov    %rsp,%rbp
  40470e:	48 89 7d e8          	mov    %rdi,-0x18(%rbp)
  404712:	48 89 75 e0          	mov    %rsi,-0x20(%rbp)
  404716:	48 89 55 d8          	mov    %rdx,-0x28(%rbp)
  40471a:	89 4d d4             	mov    %ecx,-0x2c(%rbp)
  40471d:	c7 45 fc 00 00 00 00 	movl   $0x0,-0x4(%rbp)
  404724:	e9 9e 02 00 00       	jmpq   4049c7 <getMat+0x2bd>
  404729:	48 8b 45 d8          	mov    -0x28(%rbp),%rax
  40472d:	f3 0f 10 08          	movss  (%rax),%xmm1
  404731:	8b 45 fc             	mov    -0x4(%rbp),%eax
  404734:	48 c1 e0 04          	shl    $0x4,%rax
  404738:	48 89 c2             	mov    %rax,%rdx
  40473b:	48 8b 45 e8          	mov    -0x18(%rbp),%rax
  40473f:	48 01 d0             	add    %rdx,%rax
  404742:	f3 0f 10 10          	movss  (%rax),%xmm2
  404746:	8b 45 fc             	mov    -0x4(%rbp),%eax
  404749:	48 c1 e0 04          	shl    $0x4,%rax
  40474d:	48 89 c2             	mov    %rax,%rdx
  404750:	48 8b 45 e0          	mov    -0x20(%rbp),%rax
  404754:	48 01 d0             	add    %rdx,%rax
  404757:	f3 0f 10 00          	movss  (%rax),%xmm0
  40475b:	f3 0f 59 c2          	mulss  %xmm2,%xmm0
  40475f:	f3 0f 58 c1          	addss  %xmm1,%xmm0
  404763:	48 8b 45 d8          	mov    -0x28(%rbp),%rax
  404767:	f3 0f 11 00          	movss  %xmm0,(%rax)
  40476b:	48 8b 45 d8          	mov    -0x28(%rbp),%rax
  40476f:	f3 0f 10 48 04       	movss  0x4(%rax),%xmm1
  404774:	8b 45 fc             	mov    -0x4(%rbp),%eax
  404777:	48 c1 e0 04          	shl    $0x4,%rax
  40477b:	48 89 c2             	mov    %rax,%rdx
  40477e:	48 8b 45 e8          	mov    -0x18(%rbp),%rax
  404782:	48 01 d0             	add    %rdx,%rax
  404785:	f3 0f 10 10          	movss  (%rax),%xmm2
  404789:	8b 45 fc             	mov    -0x4(%rbp),%eax
  40478c:	48 c1 e0 04          	shl    $0x4,%rax
  404790:	48 89 c2             	mov    %rax,%rdx
  404793:	48 8b 45 e0          	mov    -0x20(%rbp),%rax
  404797:	48 01 d0             	add    %rdx,%rax
  40479a:	f3 0f 10 40 04       	movss  0x4(%rax),%xmm0
  40479f:	f3 0f 59 c2          	mulss  %xmm2,%xmm0
  4047a3:	f3 0f 58 c1          	addss  %xmm1,%xmm0
  4047a7:	48 8b 45 d8          	mov    -0x28(%rbp),%rax
  4047ab:	f3 0f 11 40 04       	movss  %xmm0,0x4(%rax)
  4047b0:	48 8b 45 d8          	mov    -0x28(%rbp),%rax
  4047b4:	f3 0f 10 48 08       	movss  0x8(%rax),%xmm1
  4047b9:	8b 45 fc             	mov    -0x4(%rbp),%eax
  4047bc:	48 c1 e0 04          	shl    $0x4,%rax
  4047c0:	48 89 c2             	mov    %rax,%rdx
  4047c3:	48 8b 45 e8          	mov    -0x18(%rbp),%rax
  4047c7:	48 01 d0             	add    %rdx,%rax
  4047ca:	f3 0f 10 10          	movss  (%rax),%xmm2
  4047ce:	8b 45 fc             	mov    -0x4(%rbp),%eax
  4047d1:	48 c1 e0 04          	shl    $0x4,%rax
  4047d5:	48 89 c2             	mov    %rax,%rdx
  4047d8:	48 8b 45 e0          	mov    -0x20(%rbp),%rax
  4047dc:	48 01 d0             	add    %rdx,%rax
  4047df:	f3 0f 10 40 08       	movss  0x8(%rax),%xmm0
  4047e4:	f3 0f 59 c2          	mulss  %xmm2,%xmm0
  4047e8:	f3 0f 58 c1          	addss  %xmm1,%xmm0
  4047ec:	48 8b 45 d8          	mov    -0x28(%rbp),%rax
  4047f0:	f3 0f 11 40 08       	movss  %xmm0,0x8(%rax)
  4047f5:	48 8b 45 d8          	mov    -0x28(%rbp),%rax
  4047f9:	48 83 c0 0c          	add    $0xc,%rax
  4047fd:	48 8b 55 d8          	mov    -0x28(%rbp),%rdx
  404801:	48 83 c2 0c          	add    $0xc,%rdx
  404805:	f3 0f 10 0a          	movss  (%rdx),%xmm1
  404809:	8b 55 fc             	mov    -0x4(%rbp),%edx
  40480c:	48 89 d1             	mov    %rdx,%rcx
  40480f:	48 c1 e1 04          	shl    $0x4,%rcx
  404813:	48 8b 55 e8          	mov    -0x18(%rbp),%rdx
  404817:	48 01 ca             	add    %rcx,%rdx
  40481a:	f3 0f 10 52 04       	movss  0x4(%rdx),%xmm2
  40481f:	8b 55 fc             	mov    -0x4(%rbp),%edx
  404822:	48 89 d1             	mov    %rdx,%rcx
  404825:	48 c1 e1 04          	shl    $0x4,%rcx
  404829:	48 8b 55 e0          	mov    -0x20(%rbp),%rdx
  40482d:	48 01 ca             	add    %rcx,%rdx
  404830:	f3 0f 10 02          	movss  (%rdx),%xmm0
  404834:	f3 0f 59 c2          	mulss  %xmm2,%xmm0
  404838:	f3 0f 58 c1          	addss  %xmm1,%xmm0
  40483c:	f3 0f 11 00          	movss  %xmm0,(%rax)
  404840:	48 8b 45 d8          	mov    -0x28(%rbp),%rax
  404844:	48 83 c0 0c          	add    $0xc,%rax
  404848:	48 8b 55 d8          	mov    -0x28(%rbp),%rdx
  40484c:	48 83 c2 0c          	add    $0xc,%rdx
  404850:	f3 0f 10 4a 04       	movss  0x4(%rdx),%xmm1
  404855:	8b 55 fc             	mov    -0x4(%rbp),%edx
  404858:	48 89 d1             	mov    %rdx,%rcx
  40485b:	48 c1 e1 04          	shl    $0x4,%rcx
  40485f:	48 8b 55 e8          	mov    -0x18(%rbp),%rdx
  404863:	48 01 ca             	add    %rcx,%rdx
  404866:	f3 0f 10 52 04       	movss  0x4(%rdx),%xmm2
  40486b:	8b 55 fc             	mov    -0x4(%rbp),%edx
  40486e:	48 89 d1             	mov    %rdx,%rcx
  404871:	48 c1 e1 04          	shl    $0x4,%rcx
  404875:	48 8b 55 e0          	mov    -0x20(%rbp),%rdx
  404879:	48 01 ca             	add    %rcx,%rdx
  40487c:	f3 0f 10 42 04       	movss  0x4(%rdx),%xmm0
  404881:	f3 0f 59 c2          	mulss  %xmm2,%xmm0
  404885:	f3 0f 58 c1          	addss  %xmm1,%xmm0
  404889:	f3 0f 11 40 04       	movss  %xmm0,0x4(%rax)
  40488e:	48 8b 45 d8          	mov    -0x28(%rbp),%rax
  404892:	48 83 c0 0c          	add    $0xc,%rax
  404896:	48 8b 55 d8          	mov    -0x28(%rbp),%rdx
  40489a:	48 83 c2 0c          	add    $0xc,%rdx
  40489e:	f3 0f 10 4a 08       	movss  0x8(%rdx),%xmm1
  4048a3:	8b 55 fc             	mov    -0x4(%rbp),%edx
  4048a6:	48 89 d1             	mov    %rdx,%rcx
  4048a9:	48 c1 e1 04          	shl    $0x4,%rcx
  4048ad:	48 8b 55 e8          	mov    -0x18(%rbp),%rdx
  4048b1:	48 01 ca             	add    %rcx,%rdx
  4048b4:	f3 0f 10 52 04       	movss  0x4(%rdx),%xmm2
  4048b9:	8b 55 fc             	mov    -0x4(%rbp),%edx
  4048bc:	48 89 d1             	mov    %rdx,%rcx
  4048bf:	48 c1 e1 04          	shl    $0x4,%rcx
  4048c3:	48 8b 55 e0          	mov    -0x20(%rbp),%rdx
  4048c7:	48 01 ca             	add    %rcx,%rdx
  4048ca:	f3 0f 10 42 08       	movss  0x8(%rdx),%xmm0
  4048cf:	f3 0f 59 c2          	mulss  %xmm2,%xmm0
  4048d3:	f3 0f 58 c1          	addss  %xmm1,%xmm0
  4048d7:	f3 0f 11 40 08       	movss  %xmm0,0x8(%rax)
  4048dc:	48 8b 45 d8          	mov    -0x28(%rbp),%rax
  4048e0:	48 83 c0 18          	add    $0x18,%rax
  4048e4:	48 8b 55 d8          	mov    -0x28(%rbp),%rdx
  4048e8:	48 83 c2 18          	add    $0x18,%rdx
  4048ec:	f3 0f 10 0a          	movss  (%rdx),%xmm1
  4048f0:	8b 55 fc             	mov    -0x4(%rbp),%edx
  4048f3:	48 89 d1             	mov    %rdx,%rcx
  4048f6:	48 c1 e1 04          	shl    $0x4,%rcx
  4048fa:	48 8b 55 e8          	mov    -0x18(%rbp),%rdx
  4048fe:	48 01 ca             	add    %rcx,%rdx
  404901:	f3 0f 10 52 08       	movss  0x8(%rdx),%xmm2
  404906:	8b 55 fc             	mov    -0x4(%rbp),%edx
  404909:	48 89 d1             	mov    %rdx,%rcx
  40490c:	48 c1 e1 04          	shl    $0x4,%rcx
  404910:	48 8b 55 e0          	mov    -0x20(%rbp),%rdx
  404914:	48 01 ca             	add    %rcx,%rdx
  404917:	f3 0f 10 02          	movss  (%rdx),%xmm0
  40491b:	f3 0f 59 c2          	mulss  %xmm2,%xmm0
  40491f:	f3 0f 58 c1          	addss  %xmm1,%xmm0
  404923:	f3 0f 11 00          	movss  %xmm0,(%rax)
  404927:	48 8b 45 d8          	mov    -0x28(%rbp),%rax
  40492b:	48 83 c0 18          	add    $0x18,%rax
  40492f:	48 8b 55 d8          	mov    -0x28(%rbp),%rdx
  404933:	48 83 c2 18          	add    $0x18,%rdx
  404937:	f3 0f 10 4a 04       	movss  0x4(%rdx),%xmm1
  40493c:	8b 55 fc             	mov    -0x4(%rbp),%edx
  40493f:	48 89 d1             	mov    %rdx,%rcx
  404942:	48 c1 e1 04          	shl    $0x4,%rcx
  404946:	48 8b 55 e8          	mov    -0x18(%rbp),%rdx
  40494a:	48 01 ca             	add    %rcx,%rdx
  40494d:	f3 0f 10 52 08       	movss  0x8(%rdx),%xmm2
  404952:	8b 55 fc             	mov    -0x4(%rbp),%edx
  404955:	48 89 d1             	mov    %rdx,%rcx
  404958:	48 c1 e1 04          	shl    $0x4,%rcx
  40495c:	48 8b 55 e0          	mov    -0x20(%rbp),%rdx
  404960:	48 01 ca             	add    %rcx,%rdx
  404963:	f3 0f 10 42 04       	movss  0x4(%rdx),%xmm0
  404968:	f3 0f 59 c2          	mulss  %xmm2,%xmm0
  40496c:	f3 0f 58 c1          	addss  %xmm1,%xmm0
  404970:	f3 0f 11 40 04       	movss  %xmm0,0x4(%rax)
  404975:	48 8b 45 d8          	mov    -0x28(%rbp),%rax
  404979:	48 83 c0 18          	add    $0x18,%rax
  40497d:	48 8b 55 d8          	mov    -0x28(%rbp),%rdx
  404981:	48 83 c2 18          	add    $0x18,%rdx
  404985:	f3 0f 10 4a 08       	movss  0x8(%rdx),%xmm1
  40498a:	8b 55 fc             	mov    -0x4(%rbp),%edx
  40498d:	48 89 d1             	mov    %rdx,%rcx
  404990:	48 c1 e1 04          	shl    $0x4,%rcx
  404994:	48 8b 55 e8          	mov    -0x18(%rbp),%rdx
  404998:	48 01 ca             	add    %rcx,%rdx
  40499b:	f3 0f 10 52 08       	movss  0x8(%rdx),%xmm2
  4049a0:	8b 55 fc             	mov    -0x4(%rbp),%edx
  4049a3:	48 89 d1             	mov    %rdx,%rcx
  4049a6:	48 c1 e1 04          	shl    $0x4,%rcx
  4049aa:	48 8b 55 e0          	mov    -0x20(%rbp),%rdx
  4049ae:	48 01 ca             	add    %rcx,%rdx
  4049b1:	f3 0f 10 42 08       	movss  0x8(%rdx),%xmm0
  4049b6:	f3 0f 59 c2          	mulss  %xmm2,%xmm0
  4049ba:	f3 0f 58 c1          	addss  %xmm1,%xmm0
  4049be:	f3 0f 11 40 08       	movss  %xmm0,0x8(%rax)
  4049c3:	83 45 fc 01          	addl   $0x1,-0x4(%rbp)
  4049c7:	8b 45 fc             	mov    -0x4(%rbp),%eax
  4049ca:	3b 45 d4             	cmp    -0x2c(%rbp),%eax
  4049cd:	0f 82 56 fd ff ff    	jb     404729 <getMat+0x1f>
  4049d3:	90                   	nop
  4049d4:	5d                   	pop    %rbp
  4049d5:	c3                   	retq   

00000000004049d6 <transform>:
  4049d6:	55                   	push   %rbp
  4049d7:	48 89 e5             	mov    %rsp,%rbp
  4049da:	53                   	push   %rbx
  4049db:	48 83 ec 48          	sub    $0x48,%rsp
  4049df:	48 89 7d c8          	mov    %rdi,-0x38(%rbp)
  4049e3:	48 89 75 c0          	mov    %rsi,-0x40(%rbp)
  4049e7:	89 55 bc             	mov    %edx,-0x44(%rbp)
  4049ea:	64 48 8b 04 25 28 00 	mov    %fs:0x28,%rax
  4049f1:	00 00 
  4049f3:	48 89 45 e8          	mov    %rax,-0x18(%rbp)
  4049f7:	31 c0                	xor    %eax,%eax
  4049f9:	48 89 e0             	mov    %rsp,%rax
  4049fc:	48 89 c3             	mov    %rax,%rbx
  4049ff:	8b 45 bc             	mov    -0x44(%rbp),%eax
  404a02:	89 c2                	mov    %eax,%edx
  404a04:	48 83 ea 01          	sub    $0x1,%rdx
  404a08:	48 89 55 d8          	mov    %rdx,-0x28(%rbp)
  404a0c:	89 c2                	mov    %eax,%edx
  404a0e:	49 89 d2             	mov    %rdx,%r10
  404a11:	41 bb 00 00 00 00    	mov    $0x0,%r11d
  404a17:	89 c2                	mov    %eax,%edx
  404a19:	49 89 d0             	mov    %rdx,%r8
  404a1c:	41 b9 00 00 00 00    	mov    $0x0,%r9d
  404a22:	89 c0                	mov    %eax,%eax
  404a24:	48 c1 e0 04          	shl    $0x4,%rax
  404a28:	48 8d 50 03          	lea    0x3(%rax),%rdx
  404a2c:	b8 10 00 00 00       	mov    $0x10,%eax
  404a31:	48 83 e8 01          	sub    $0x1,%rax
  404a35:	48 01 d0             	add    %rdx,%rax
  404a38:	bf 10 00 00 00       	mov    $0x10,%edi
  404a3d:	ba 00 00 00 00       	mov    $0x0,%edx
  404a42:	48 f7 f7             	div    %rdi
  404a45:	48 6b c0 10          	imul   $0x10,%rax,%rax
  404a49:	48 29 c4             	sub    %rax,%rsp
  404a4c:	48 89 e0             	mov    %rsp,%rax
  404a4f:	48 83 c0 03          	add    $0x3,%rax
  404a53:	48 c1 e8 02          	shr    $0x2,%rax
  404a57:	48 c1 e0 02          	shl    $0x2,%rax
  404a5b:	48 89 45 e0          	mov    %rax,-0x20(%rbp)
  404a5f:	8b 45 bc             	mov    -0x44(%rbp),%eax
  404a62:	48 c1 e0 04          	shl    $0x4,%rax
  404a66:	48 89 c2             	mov    %rax,%rdx
  404a69:	48 8b 45 e0          	mov    -0x20(%rbp),%rax
  404a6d:	48 8b 4d c0          	mov    -0x40(%rbp),%rcx
  404a71:	48 89 ce             	mov    %rcx,%rsi
  404a74:	48 89 c7             	mov    %rax,%rdi
  404a77:	e8 f4 c6 ff ff       	callq  401170 <memcpy@plt>
  404a7c:	c7 45 d4 00 00 00 00 	movl   $0x0,-0x2c(%rbp)
  404a83:	eb 3c                	jmp    404ac1 <transform+0xeb>
  404a85:	8b 45 d4             	mov    -0x2c(%rbp),%eax
  404a88:	48 c1 e0 04          	shl    $0x4,%rax
  404a8c:	48 89 c2             	mov    %rax,%rdx
  404a8f:	48 8b 45 c0          	mov    -0x40(%rbp),%rax
  404a93:	48 01 d0             	add    %rdx,%rax
  404a96:	48 89 c6             	mov    %rax,%rsi
  404a99:	8b 45 d4             	mov    -0x2c(%rbp),%eax
  404a9c:	48 c1 e0 04          	shl    $0x4,%rax
  404aa0:	48 89 c2             	mov    %rax,%rdx
  404aa3:	48 8b 45 e0          	mov    -0x20(%rbp),%rax
  404aa7:	48 8d 0c 02          	lea    (%rdx,%rax,1),%rcx
  404aab:	48 8b 45 c8          	mov    -0x38(%rbp),%rax
  404aaf:	48 89 f2             	mov    %rsi,%rdx
  404ab2:	48 89 ce             	mov    %rcx,%rsi
  404ab5:	48 89 c7             	mov    %rax,%rdi
  404ab8:	e8 2f f7 ff ff       	callq  4041ec <matMulVec4D>
  404abd:	83 45 d4 01          	addl   $0x1,-0x2c(%rbp)
  404ac1:	8b 45 d4             	mov    -0x2c(%rbp),%eax
  404ac4:	3b 45 bc             	cmp    -0x44(%rbp),%eax
  404ac7:	72 bc                	jb     404a85 <transform+0xaf>
  404ac9:	48 89 dc             	mov    %rbx,%rsp
  404acc:	90                   	nop
  404acd:	48 8b 45 e8          	mov    -0x18(%rbp),%rax
  404ad1:	64 48 33 04 25 28 00 	xor    %fs:0x28,%rax
  404ad8:	00 00 
  404ada:	74 05                	je     404ae1 <transform+0x10b>
  404adc:	e8 5f c6 ff ff       	callq  401140 <__stack_chk_fail@plt>
  404ae1:	48 8b 5d f8          	mov    -0x8(%rbp),%rbx
  404ae5:	c9                   	leaveq 
  404ae6:	c3                   	retq   

0000000000404ae7 <printMat3>:
  404ae7:	55                   	push   %rbp
  404ae8:	48 89 e5             	mov    %rsp,%rbp
  404aeb:	48 83 ec 20          	sub    $0x20,%rsp
  404aef:	f3 0f 11 45 fc       	movss  %xmm0,-0x4(%rbp)
  404af4:	f3 0f 11 4d f8       	movss  %xmm1,-0x8(%rbp)
  404af9:	f3 0f 11 55 f4       	movss  %xmm2,-0xc(%rbp)
  404afe:	f3 0f 11 5d f0       	movss  %xmm3,-0x10(%rbp)
  404b03:	f3 0f 11 65 ec       	movss  %xmm4,-0x14(%rbp)
  404b08:	f3 0f 11 6d e8       	movss  %xmm5,-0x18(%rbp)
  404b0d:	f3 0f 11 75 e4       	movss  %xmm6,-0x1c(%rbp)
  404b12:	f3 0f 11 7d e0       	movss  %xmm7,-0x20(%rbp)
  404b17:	f3 0f 5a 55 f4       	cvtss2sd -0xc(%rbp),%xmm2
  404b1c:	f3 0f 5a 4d f8       	cvtss2sd -0x8(%rbp),%xmm1
  404b21:	f3 0f 5a 45 fc       	cvtss2sd -0x4(%rbp),%xmm0
  404b26:	bf c0 85 40 00       	mov    $0x4085c0,%edi
  404b2b:	b8 03 00 00 00       	mov    $0x3,%eax
  404b30:	e8 1b c6 ff ff       	callq  401150 <printf@plt>
  404b35:	f3 0f 5a 55 e8       	cvtss2sd -0x18(%rbp),%xmm2
  404b3a:	f3 0f 5a 4d ec       	cvtss2sd -0x14(%rbp),%xmm1
  404b3f:	f3 0f 5a 45 f0       	cvtss2sd -0x10(%rbp),%xmm0
  404b44:	bf c0 85 40 00       	mov    $0x4085c0,%edi
  404b49:	b8 03 00 00 00       	mov    $0x3,%eax
  404b4e:	e8 fd c5 ff ff       	callq  401150 <printf@plt>
  404b53:	f3 0f 5a 55 10       	cvtss2sd 0x10(%rbp),%xmm2
  404b58:	f3 0f 5a 4d e0       	cvtss2sd -0x20(%rbp),%xmm1
  404b5d:	f3 0f 5a 45 e4       	cvtss2sd -0x1c(%rbp),%xmm0
  404b62:	bf c0 85 40 00       	mov    $0x4085c0,%edi
  404b67:	b8 03 00 00 00       	mov    $0x3,%eax
  404b6c:	e8 df c5 ff ff       	callq  401150 <printf@plt>
  404b71:	90                   	nop
  404b72:	c9                   	leaveq 
  404b73:	c3                   	retq   

0000000000404b74 <meanBoth>:
  404b74:	55                   	push   %rbp
  404b75:	48 89 e5             	mov    %rsp,%rbp
  404b78:	48 89 7d e8          	mov    %rdi,-0x18(%rbp)
  404b7c:	48 89 75 e0          	mov    %rsi,-0x20(%rbp)
  404b80:	48 89 55 d8          	mov    %rdx,-0x28(%rbp)
  404b84:	48 89 4d d0          	mov    %rcx,-0x30(%rbp)
  404b88:	44 89 45 cc          	mov    %r8d,-0x34(%rbp)
  404b8c:	c7 45 fc 00 00 00 00 	movl   $0x0,-0x4(%rbp)
  404b93:	e9 1e 01 00 00       	jmpq   404cb6 <meanBoth+0x142>
  404b98:	48 8b 45 d8          	mov    -0x28(%rbp),%rax
  404b9c:	f3 0f 10 08          	movss  (%rax),%xmm1
  404ba0:	8b 45 fc             	mov    -0x4(%rbp),%eax
  404ba3:	48 c1 e0 04          	shl    $0x4,%rax
  404ba7:	48 89 c2             	mov    %rax,%rdx
  404baa:	48 8b 45 e8          	mov    -0x18(%rbp),%rax
  404bae:	48 01 d0             	add    %rdx,%rax
  404bb1:	f3 0f 10 00          	movss  (%rax),%xmm0
  404bb5:	f3 0f 58 c1          	addss  %xmm1,%xmm0
  404bb9:	48 8b 45 d8          	mov    -0x28(%rbp),%rax
  404bbd:	f3 0f 11 00          	movss  %xmm0,(%rax)
  404bc1:	48 8b 45 d8          	mov    -0x28(%rbp),%rax
  404bc5:	48 83 c0 04          	add    $0x4,%rax
  404bc9:	48 8b 55 d8          	mov    -0x28(%rbp),%rdx
  404bcd:	48 83 c2 04          	add    $0x4,%rdx
  404bd1:	f3 0f 10 0a          	movss  (%rdx),%xmm1
  404bd5:	8b 55 fc             	mov    -0x4(%rbp),%edx
  404bd8:	48 89 d1             	mov    %rdx,%rcx
  404bdb:	48 c1 e1 04          	shl    $0x4,%rcx
  404bdf:	48 8b 55 e8          	mov    -0x18(%rbp),%rdx
  404be3:	48 01 ca             	add    %rcx,%rdx
  404be6:	f3 0f 10 42 04       	movss  0x4(%rdx),%xmm0
  404beb:	f3 0f 58 c1          	addss  %xmm1,%xmm0
  404bef:	f3 0f 11 00          	movss  %xmm0,(%rax)
  404bf3:	48 8b 45 d8          	mov    -0x28(%rbp),%rax
  404bf7:	48 83 c0 08          	add    $0x8,%rax
  404bfb:	48 8b 55 d8          	mov    -0x28(%rbp),%rdx
  404bff:	48 83 c2 08          	add    $0x8,%rdx
  404c03:	f3 0f 10 0a          	movss  (%rdx),%xmm1
  404c07:	8b 55 fc             	mov    -0x4(%rbp),%edx
  404c0a:	48 89 d1             	mov    %rdx,%rcx
  404c0d:	48 c1 e1 04          	shl    $0x4,%rcx
  404c11:	48 8b 55 e8          	mov    -0x18(%rbp),%rdx
  404c15:	48 01 ca             	add    %rcx,%rdx
  404c18:	f3 0f 10 42 08       	movss  0x8(%rdx),%xmm0
  404c1d:	f3 0f 58 c1          	addss  %xmm1,%xmm0
  404c21:	f3 0f 11 00          	movss  %xmm0,(%rax)
  404c25:	48 8b 45 d0          	mov    -0x30(%rbp),%rax
  404c29:	f3 0f 10 08          	movss  (%rax),%xmm1
  404c2d:	8b 45 fc             	mov    -0x4(%rbp),%eax
  404c30:	48 c1 e0 04          	shl    $0x4,%rax
  404c34:	48 89 c2             	mov    %rax,%rdx
  404c37:	48 8b 45 e0          	mov    -0x20(%rbp),%rax
  404c3b:	48 01 d0             	add    %rdx,%rax
  404c3e:	f3 0f 10 00          	movss  (%rax),%xmm0
  404c42:	f3 0f 58 c1          	addss  %xmm1,%xmm0
  404c46:	48 8b 45 d0          	mov    -0x30(%rbp),%rax
  404c4a:	f3 0f 11 00          	movss  %xmm0,(%rax)
  404c4e:	48 8b 45 d0          	mov    -0x30(%rbp),%rax
  404c52:	48 83 c0 04          	add    $0x4,%rax
  404c56:	48 8b 55 d0          	mov    -0x30(%rbp),%rdx
  404c5a:	48 83 c2 04          	add    $0x4,%rdx
  404c5e:	f3 0f 10 0a          	movss  (%rdx),%xmm1
  404c62:	8b 55 fc             	mov    -0x4(%rbp),%edx
  404c65:	48 89 d1             	mov    %rdx,%rcx
  404c68:	48 c1 e1 04          	shl    $0x4,%rcx
  404c6c:	48 8b 55 e0          	mov    -0x20(%rbp),%rdx
  404c70:	48 01 ca             	add    %rcx,%rdx
  404c73:	f3 0f 10 42 04       	movss  0x4(%rdx),%xmm0
  404c78:	f3 0f 58 c1          	addss  %xmm1,%xmm0
  404c7c:	f3 0f 11 00          	movss  %xmm0,(%rax)
  404c80:	48 8b 45 d0          	mov    -0x30(%rbp),%rax
  404c84:	48 83 c0 08          	add    $0x8,%rax
  404c88:	48 8b 55 d0          	mov    -0x30(%rbp),%rdx
  404c8c:	48 83 c2 08          	add    $0x8,%rdx
  404c90:	f3 0f 10 0a          	movss  (%rdx),%xmm1
  404c94:	8b 55 fc             	mov    -0x4(%rbp),%edx
  404c97:	48 89 d1             	mov    %rdx,%rcx
  404c9a:	48 c1 e1 04          	shl    $0x4,%rcx
  404c9e:	48 8b 55 e0          	mov    -0x20(%rbp),%rdx
  404ca2:	48 01 ca             	add    %rcx,%rdx
  404ca5:	f3 0f 10 42 08       	movss  0x8(%rdx),%xmm0
  404caa:	f3 0f 58 c1          	addss  %xmm1,%xmm0
  404cae:	f3 0f 11 00          	movss  %xmm0,(%rax)
  404cb2:	83 45 fc 01          	addl   $0x1,-0x4(%rbp)
  404cb6:	8b 45 fc             	mov    -0x4(%rbp),%eax
  404cb9:	3b 45 cc             	cmp    -0x34(%rbp),%eax
  404cbc:	0f 82 d6 fe ff ff    	jb     404b98 <meanBoth+0x24>
  404cc2:	48 8b 45 d8          	mov    -0x28(%rbp),%rax
  404cc6:	f3 0f 10 08          	movss  (%rax),%xmm1
  404cca:	8b 45 cc             	mov    -0x34(%rbp),%eax
  404ccd:	48 85 c0             	test   %rax,%rax
  404cd0:	78 0b                	js     404cdd <meanBoth+0x169>
  404cd2:	66 0f ef c0          	pxor   %xmm0,%xmm0
  404cd6:	f3 48 0f 2a c0       	cvtsi2ss %rax,%xmm0
  404cdb:	eb 19                	jmp    404cf6 <meanBoth+0x182>
  404cdd:	48 89 c2             	mov    %rax,%rdx
  404ce0:	48 d1 ea             	shr    %rdx
  404ce3:	83 e0 01             	and    $0x1,%eax
  404ce6:	48 09 c2             	or     %rax,%rdx
  404ce9:	66 0f ef c0          	pxor   %xmm0,%xmm0
  404ced:	f3 48 0f 2a c2       	cvtsi2ss %rdx,%xmm0
  404cf2:	f3 0f 58 c0          	addss  %xmm0,%xmm0
  404cf6:	f3 0f 5e c8          	divss  %xmm0,%xmm1
  404cfa:	0f 28 c1             	movaps %xmm1,%xmm0
  404cfd:	48 8b 45 d8          	mov    -0x28(%rbp),%rax
  404d01:	f3 0f 11 00          	movss  %xmm0,(%rax)
  404d05:	48 8b 45 d8          	mov    -0x28(%rbp),%rax
  404d09:	48 8d 48 04          	lea    0x4(%rax),%rcx
  404d0d:	48 8b 45 d8          	mov    -0x28(%rbp),%rax
  404d11:	48 83 c0 04          	add    $0x4,%rax
  404d15:	f3 0f 10 08          	movss  (%rax),%xmm1
  404d19:	8b 45 cc             	mov    -0x34(%rbp),%eax
  404d1c:	48 85 c0             	test   %rax,%rax
  404d1f:	78 0b                	js     404d2c <meanBoth+0x1b8>
  404d21:	66 0f ef c0          	pxor   %xmm0,%xmm0
  404d25:	f3 48 0f 2a c0       	cvtsi2ss %rax,%xmm0
  404d2a:	eb 19                	jmp    404d45 <meanBoth+0x1d1>
  404d2c:	48 89 c2             	mov    %rax,%rdx
  404d2f:	48 d1 ea             	shr    %rdx
  404d32:	83 e0 01             	and    $0x1,%eax
  404d35:	48 09 c2             	or     %rax,%rdx
  404d38:	66 0f ef c0          	pxor   %xmm0,%xmm0
  404d3c:	f3 48 0f 2a c2       	cvtsi2ss %rdx,%xmm0
  404d41:	f3 0f 58 c0          	addss  %xmm0,%xmm0
  404d45:	f3 0f 5e c8          	divss  %xmm0,%xmm1
  404d49:	0f 28 c1             	movaps %xmm1,%xmm0
  404d4c:	f3 0f 11 01          	movss  %xmm0,(%rcx)
  404d50:	48 8b 45 d8          	mov    -0x28(%rbp),%rax
  404d54:	48 8d 48 08          	lea    0x8(%rax),%rcx
  404d58:	48 8b 45 d8          	mov    -0x28(%rbp),%rax
  404d5c:	48 83 c0 08          	add    $0x8,%rax
  404d60:	f3 0f 10 08          	movss  (%rax),%xmm1
  404d64:	8b 45 cc             	mov    -0x34(%rbp),%eax
  404d67:	48 85 c0             	test   %rax,%rax
  404d6a:	78 0b                	js     404d77 <meanBoth+0x203>
  404d6c:	66 0f ef c0          	pxor   %xmm0,%xmm0
  404d70:	f3 48 0f 2a c0       	cvtsi2ss %rax,%xmm0
  404d75:	eb 19                	jmp    404d90 <meanBoth+0x21c>
  404d77:	48 89 c2             	mov    %rax,%rdx
  404d7a:	48 d1 ea             	shr    %rdx
  404d7d:	83 e0 01             	and    $0x1,%eax
  404d80:	48 09 c2             	or     %rax,%rdx
  404d83:	66 0f ef c0          	pxor   %xmm0,%xmm0
  404d87:	f3 48 0f 2a c2       	cvtsi2ss %rdx,%xmm0
  404d8c:	f3 0f 58 c0          	addss  %xmm0,%xmm0
  404d90:	f3 0f 5e c8          	divss  %xmm0,%xmm1
  404d94:	0f 28 c1             	movaps %xmm1,%xmm0
  404d97:	f3 0f 11 01          	movss  %xmm0,(%rcx)
  404d9b:	48 8b 45 d0          	mov    -0x30(%rbp),%rax
  404d9f:	f3 0f 10 08          	movss  (%rax),%xmm1
  404da3:	8b 45 cc             	mov    -0x34(%rbp),%eax
  404da6:	48 85 c0             	test   %rax,%rax
  404da9:	78 0b                	js     404db6 <meanBoth+0x242>
  404dab:	66 0f ef c0          	pxor   %xmm0,%xmm0
  404daf:	f3 48 0f 2a c0       	cvtsi2ss %rax,%xmm0
  404db4:	eb 19                	jmp    404dcf <meanBoth+0x25b>
  404db6:	48 89 c2             	mov    %rax,%rdx
  404db9:	48 d1 ea             	shr    %rdx
  404dbc:	83 e0 01             	and    $0x1,%eax
  404dbf:	48 09 c2             	or     %rax,%rdx
  404dc2:	66 0f ef c0          	pxor   %xmm0,%xmm0
  404dc6:	f3 48 0f 2a c2       	cvtsi2ss %rdx,%xmm0
  404dcb:	f3 0f 58 c0          	addss  %xmm0,%xmm0
  404dcf:	f3 0f 5e c8          	divss  %xmm0,%xmm1
  404dd3:	0f 28 c1             	movaps %xmm1,%xmm0
  404dd6:	48 8b 45 d0          	mov    -0x30(%rbp),%rax
  404dda:	f3 0f 11 00          	movss  %xmm0,(%rax)
  404dde:	48 8b 45 d0          	mov    -0x30(%rbp),%rax
  404de2:	48 8d 48 04          	lea    0x4(%rax),%rcx
  404de6:	48 8b 45 d0          	mov    -0x30(%rbp),%rax
  404dea:	48 83 c0 04          	add    $0x4,%rax
  404dee:	f3 0f 10 08          	movss  (%rax),%xmm1
  404df2:	8b 45 cc             	mov    -0x34(%rbp),%eax
  404df5:	48 85 c0             	test   %rax,%rax
  404df8:	78 0b                	js     404e05 <meanBoth+0x291>
  404dfa:	66 0f ef c0          	pxor   %xmm0,%xmm0
  404dfe:	f3 48 0f 2a c0       	cvtsi2ss %rax,%xmm0
  404e03:	eb 19                	jmp    404e1e <meanBoth+0x2aa>
  404e05:	48 89 c2             	mov    %rax,%rdx
  404e08:	48 d1 ea             	shr    %rdx
  404e0b:	83 e0 01             	and    $0x1,%eax
  404e0e:	48 09 c2             	or     %rax,%rdx
  404e11:	66 0f ef c0          	pxor   %xmm0,%xmm0
  404e15:	f3 48 0f 2a c2       	cvtsi2ss %rdx,%xmm0
  404e1a:	f3 0f 58 c0          	addss  %xmm0,%xmm0
  404e1e:	f3 0f 5e c8          	divss  %xmm0,%xmm1
  404e22:	0f 28 c1             	movaps %xmm1,%xmm0
  404e25:	f3 0f 11 01          	movss  %xmm0,(%rcx)
  404e29:	48 8b 45 d0          	mov    -0x30(%rbp),%rax
  404e2d:	48 8d 48 08          	lea    0x8(%rax),%rcx
  404e31:	48 8b 45 d0          	mov    -0x30(%rbp),%rax
  404e35:	48 83 c0 08          	add    $0x8,%rax
  404e39:	f3 0f 10 08          	movss  (%rax),%xmm1
  404e3d:	8b 45 cc             	mov    -0x34(%rbp),%eax
  404e40:	48 85 c0             	test   %rax,%rax
  404e43:	78 0b                	js     404e50 <meanBoth+0x2dc>
  404e45:	66 0f ef c0          	pxor   %xmm0,%xmm0
  404e49:	f3 48 0f 2a c0       	cvtsi2ss %rax,%xmm0
  404e4e:	eb 19                	jmp    404e69 <meanBoth+0x2f5>
  404e50:	48 89 c2             	mov    %rax,%rdx
  404e53:	48 d1 ea             	shr    %rdx
  404e56:	83 e0 01             	and    $0x1,%eax
  404e59:	48 09 c2             	or     %rax,%rdx
  404e5c:	66 0f ef c0          	pxor   %xmm0,%xmm0
  404e60:	f3 48 0f 2a c2       	cvtsi2ss %rdx,%xmm0
  404e65:	f3 0f 58 c0          	addss  %xmm0,%xmm0
  404e69:	f3 0f 5e c8          	divss  %xmm0,%xmm1
  404e6d:	0f 28 c1             	movaps %xmm1,%xmm0
  404e70:	f3 0f 11 01          	movss  %xmm0,(%rcx)
  404e74:	90                   	nop
  404e75:	5d                   	pop    %rbp
  404e76:	c3                   	retq   

0000000000404e77 <calcTransform>:
  404e77:	55                   	push   %rbp
  404e78:	48 89 e5             	mov    %rsp,%rbp
  404e7b:	41 57                	push   %r15
  404e7d:	41 56                	push   %r14
  404e7f:	41 55                	push   %r13
  404e81:	41 54                	push   %r12
  404e83:	53                   	push   %rbx
  404e84:	48 81 ec 88 01 00 00 	sub    $0x188,%rsp
  404e8b:	48 89 bd 68 fe ff ff 	mov    %rdi,-0x198(%rbp)
  404e92:	48 89 b5 60 fe ff ff 	mov    %rsi,-0x1a0(%rbp)
  404e99:	48 89 95 58 fe ff ff 	mov    %rdx,-0x1a8(%rbp)
  404ea0:	89 8d 54 fe ff ff    	mov    %ecx,-0x1ac(%rbp)
  404ea6:	64 48 8b 04 25 28 00 	mov    %fs:0x28,%rax
  404ead:	00 00 
  404eaf:	48 89 45 c8          	mov    %rax,-0x38(%rbp)
  404eb3:	31 c0                	xor    %eax,%eax
  404eb5:	48 89 e0             	mov    %rsp,%rax
  404eb8:	48 89 c3             	mov    %rax,%rbx
  404ebb:	48 c7 85 e0 fe ff ff 	movq   $0x0,-0x120(%rbp)
  404ec2:	00 00 00 00 
  404ec6:	48 c7 85 e8 fe ff ff 	movq   $0x0,-0x118(%rbp)
  404ecd:	00 00 00 00 
  404ed1:	48 c7 85 f0 fe ff ff 	movq   $0x0,-0x110(%rbp)
  404ed8:	00 00 00 00 
  404edc:	48 c7 85 f8 fe ff ff 	movq   $0x0,-0x108(%rbp)
  404ee3:	00 00 00 00 
  404ee7:	c7 85 00 ff ff ff 00 	movl   $0x0,-0x100(%rbp)
  404eee:	00 00 00 
  404ef1:	8b 85 54 fe ff ff    	mov    -0x1ac(%rbp),%eax
  404ef7:	89 c2                	mov    %eax,%edx
  404ef9:	48 83 ea 01          	sub    $0x1,%rdx
  404efd:	48 89 95 80 fe ff ff 	mov    %rdx,-0x180(%rbp)
  404f04:	89 c2                	mov    %eax,%edx
  404f06:	49 89 d6             	mov    %rdx,%r14
  404f09:	41 bf 00 00 00 00    	mov    $0x0,%r15d
  404f0f:	89 c2                	mov    %eax,%edx
  404f11:	49 89 d4             	mov    %rdx,%r12
  404f14:	41 bd 00 00 00 00    	mov    $0x0,%r13d
  404f1a:	89 c0                	mov    %eax,%eax
  404f1c:	48 c1 e0 04          	shl    $0x4,%rax
  404f20:	48 8d 50 03          	lea    0x3(%rax),%rdx
  404f24:	b8 10 00 00 00       	mov    $0x10,%eax
  404f29:	48 83 e8 01          	sub    $0x1,%rax
  404f2d:	48 01 d0             	add    %rdx,%rax
  404f30:	bf 10 00 00 00       	mov    $0x10,%edi
  404f35:	ba 00 00 00 00       	mov    $0x0,%edx
  404f3a:	48 f7 f7             	div    %rdi
  404f3d:	48 6b c0 10          	imul   $0x10,%rax,%rax
  404f41:	48 29 c4             	sub    %rax,%rsp
  404f44:	48 89 e0             	mov    %rsp,%rax
  404f47:	48 83 c0 03          	add    $0x3,%rax
  404f4b:	48 c1 e8 02          	shr    $0x2,%rax
  404f4f:	48 c1 e0 02          	shl    $0x2,%rax
  404f53:	48 89 85 88 fe ff ff 	mov    %rax,-0x178(%rbp)
  404f5a:	8b 85 54 fe ff ff    	mov    -0x1ac(%rbp),%eax
  404f60:	89 c2                	mov    %eax,%edx
  404f62:	48 83 ea 01          	sub    $0x1,%rdx
  404f66:	48 89 95 90 fe ff ff 	mov    %rdx,-0x170(%rbp)
  404f6d:	89 c2                	mov    %eax,%edx
  404f6f:	49 89 d2             	mov    %rdx,%r10
  404f72:	41 bb 00 00 00 00    	mov    $0x0,%r11d
  404f78:	89 c2                	mov    %eax,%edx
  404f7a:	49 89 d0             	mov    %rdx,%r8
  404f7d:	41 b9 00 00 00 00    	mov    $0x0,%r9d
  404f83:	89 c0                	mov    %eax,%eax
  404f85:	48 c1 e0 04          	shl    $0x4,%rax
  404f89:	48 8d 50 03          	lea    0x3(%rax),%rdx
  404f8d:	b8 10 00 00 00       	mov    $0x10,%eax
  404f92:	48 83 e8 01          	sub    $0x1,%rax
  404f96:	48 01 d0             	add    %rdx,%rax
  404f99:	be 10 00 00 00       	mov    $0x10,%esi
  404f9e:	ba 00 00 00 00       	mov    $0x0,%edx
  404fa3:	48 f7 f6             	div    %rsi
  404fa6:	48 6b c0 10          	imul   $0x10,%rax,%rax
  404faa:	48 29 c4             	sub    %rax,%rsp
  404fad:	48 89 e0             	mov    %rsp,%rax
  404fb0:	48 83 c0 03          	add    $0x3,%rax
  404fb4:	48 c1 e8 02          	shr    $0x2,%rax
  404fb8:	48 c1 e0 02          	shl    $0x2,%rax
  404fbc:	48 89 85 98 fe ff ff 	mov    %rax,-0x168(%rbp)
  404fc3:	8b bd 54 fe ff ff    	mov    -0x1ac(%rbp),%edi
  404fc9:	48 8d 8d b0 fe ff ff 	lea    -0x150(%rbp),%rcx
  404fd0:	48 8d 95 a0 fe ff ff 	lea    -0x160(%rbp),%rdx
  404fd7:	48 8b b5 60 fe ff ff 	mov    -0x1a0(%rbp),%rsi
  404fde:	48 8b 85 68 fe ff ff 	mov    -0x198(%rbp),%rax
  404fe5:	41 89 f8             	mov    %edi,%r8d
  404fe8:	48 89 c7             	mov    %rax,%rdi
  404feb:	e8 84 fb ff ff       	callq  404b74 <meanBoth>
  404ff0:	c7 85 7c fe ff ff 00 	movl   $0x0,-0x184(%rbp)
  404ff7:	00 00 00 
  404ffa:	e9 95 01 00 00       	jmpq   405194 <calcTransform+0x31d>
  404fff:	8b 85 7c fe ff ff    	mov    -0x184(%rbp),%eax
  405005:	48 c1 e0 04          	shl    $0x4,%rax
  405009:	48 89 c2             	mov    %rax,%rdx
  40500c:	48 8b 85 68 fe ff ff 	mov    -0x198(%rbp),%rax
  405013:	48 01 d0             	add    %rdx,%rax
  405016:	f3 0f 10 00          	movss  (%rax),%xmm0
  40501a:	f3 0f 10 8d a0 fe ff 	movss  -0x160(%rbp),%xmm1
  405021:	ff 
  405022:	f3 0f 5c c1          	subss  %xmm1,%xmm0
  405026:	48 8b 85 88 fe ff ff 	mov    -0x178(%rbp),%rax
  40502d:	8b 95 7c fe ff ff    	mov    -0x184(%rbp),%edx
  405033:	48 c1 e2 04          	shl    $0x4,%rdx
  405037:	48 01 d0             	add    %rdx,%rax
  40503a:	f3 0f 11 00          	movss  %xmm0,(%rax)
  40503e:	8b 85 7c fe ff ff    	mov    -0x184(%rbp),%eax
  405044:	48 c1 e0 04          	shl    $0x4,%rax
  405048:	48 89 c2             	mov    %rax,%rdx
  40504b:	48 8b 85 68 fe ff ff 	mov    -0x198(%rbp),%rax
  405052:	48 01 d0             	add    %rdx,%rax
  405055:	f3 0f 10 40 04       	movss  0x4(%rax),%xmm0
  40505a:	f3 0f 10 8d a4 fe ff 	movss  -0x15c(%rbp),%xmm1
  405061:	ff 
  405062:	f3 0f 5c c1          	subss  %xmm1,%xmm0
  405066:	48 8b 85 88 fe ff ff 	mov    -0x178(%rbp),%rax
  40506d:	8b 95 7c fe ff ff    	mov    -0x184(%rbp),%edx
  405073:	48 c1 e2 04          	shl    $0x4,%rdx
  405077:	48 01 d0             	add    %rdx,%rax
  40507a:	48 83 c0 04          	add    $0x4,%rax
  40507e:	f3 0f 11 00          	movss  %xmm0,(%rax)
  405082:	8b 85 7c fe ff ff    	mov    -0x184(%rbp),%eax
  405088:	48 c1 e0 04          	shl    $0x4,%rax
  40508c:	48 89 c2             	mov    %rax,%rdx
  40508f:	48 8b 85 68 fe ff ff 	mov    -0x198(%rbp),%rax
  405096:	48 01 d0             	add    %rdx,%rax
  405099:	f3 0f 10 40 08       	movss  0x8(%rax),%xmm0
  40509e:	f3 0f 10 8d a8 fe ff 	movss  -0x158(%rbp),%xmm1
  4050a5:	ff 
  4050a6:	f3 0f 5c c1          	subss  %xmm1,%xmm0
  4050aa:	48 8b 85 88 fe ff ff 	mov    -0x178(%rbp),%rax
  4050b1:	8b 95 7c fe ff ff    	mov    -0x184(%rbp),%edx
  4050b7:	48 c1 e2 04          	shl    $0x4,%rdx
  4050bb:	48 01 d0             	add    %rdx,%rax
  4050be:	48 83 c0 08          	add    $0x8,%rax
  4050c2:	f3 0f 11 00          	movss  %xmm0,(%rax)
  4050c6:	8b 85 7c fe ff ff    	mov    -0x184(%rbp),%eax
  4050cc:	48 c1 e0 04          	shl    $0x4,%rax
  4050d0:	48 89 c2             	mov    %rax,%rdx
  4050d3:	48 8b 85 60 fe ff ff 	mov    -0x1a0(%rbp),%rax
  4050da:	48 01 d0             	add    %rdx,%rax
  4050dd:	f3 0f 10 00          	movss  (%rax),%xmm0
  4050e1:	f3 0f 10 8d b0 fe ff 	movss  -0x150(%rbp),%xmm1
  4050e8:	ff 
  4050e9:	f3 0f 5c c1          	subss  %xmm1,%xmm0
  4050ed:	48 8b 85 98 fe ff ff 	mov    -0x168(%rbp),%rax
  4050f4:	8b 95 7c fe ff ff    	mov    -0x184(%rbp),%edx
  4050fa:	48 c1 e2 04          	shl    $0x4,%rdx
  4050fe:	48 01 d0             	add    %rdx,%rax
  405101:	f3 0f 11 00          	movss  %xmm0,(%rax)
  405105:	8b 85 7c fe ff ff    	mov    -0x184(%rbp),%eax
  40510b:	48 c1 e0 04          	shl    $0x4,%rax
  40510f:	48 89 c2             	mov    %rax,%rdx
  405112:	48 8b 85 60 fe ff ff 	mov    -0x1a0(%rbp),%rax
  405119:	48 01 d0             	add    %rdx,%rax
  40511c:	f3 0f 10 40 04       	movss  0x4(%rax),%xmm0
  405121:	f3 0f 10 8d b4 fe ff 	movss  -0x14c(%rbp),%xmm1
  405128:	ff 
  405129:	f3 0f 5c c1          	subss  %xmm1,%xmm0
  40512d:	48 8b 85 98 fe ff ff 	mov    -0x168(%rbp),%rax
  405134:	8b 95 7c fe ff ff    	mov    -0x184(%rbp),%edx
  40513a:	48 c1 e2 04          	shl    $0x4,%rdx
  40513e:	48 01 d0             	add    %rdx,%rax
  405141:	48 83 c0 04          	add    $0x4,%rax
  405145:	f3 0f 11 00          	movss  %xmm0,(%rax)
  405149:	8b 85 7c fe ff ff    	mov    -0x184(%rbp),%eax
  40514f:	48 c1 e0 04          	shl    $0x4,%rax
  405153:	48 89 c2             	mov    %rax,%rdx
  405156:	48 8b 85 60 fe ff ff 	mov    -0x1a0(%rbp),%rax
  40515d:	48 01 d0             	add    %rdx,%rax
  405160:	f3 0f 10 40 08       	movss  0x8(%rax),%xmm0
  405165:	f3 0f 10 8d b8 fe ff 	movss  -0x148(%rbp),%xmm1
  40516c:	ff 
  40516d:	f3 0f 5c c1          	subss  %xmm1,%xmm0
  405171:	48 8b 85 98 fe ff ff 	mov    -0x168(%rbp),%rax
  405178:	8b 95 7c fe ff ff    	mov    -0x184(%rbp),%edx
  40517e:	48 c1 e2 04          	shl    $0x4,%rdx
  405182:	48 01 d0             	add    %rdx,%rax
  405185:	48 83 c0 08          	add    $0x8,%rax
  405189:	f3 0f 11 00          	movss  %xmm0,(%rax)
  40518d:	83 85 7c fe ff ff 01 	addl   $0x1,-0x184(%rbp)
  405194:	8b 85 7c fe ff ff    	mov    -0x184(%rbp),%eax
  40519a:	3b 85 54 fe ff ff    	cmp    -0x1ac(%rbp),%eax
  4051a0:	0f 82 59 fe ff ff    	jb     404fff <calcTransform+0x188>
  4051a6:	48 8b b5 98 fe ff ff 	mov    -0x168(%rbp),%rsi
  4051ad:	48 8b 85 88 fe ff ff 	mov    -0x178(%rbp),%rax
  4051b4:	8b 8d 54 fe ff ff    	mov    -0x1ac(%rbp),%ecx
  4051ba:	48 8d 95 e0 fe ff ff 	lea    -0x120(%rbp),%rdx
  4051c1:	48 89 c7             	mov    %rax,%rdi
  4051c4:	e8 41 f5 ff ff       	callq  40470a <getMat>
  4051c9:	48 8d 95 40 ff ff ff 	lea    -0xc0(%rbp),%rdx
  4051d0:	48 8d 8d 10 ff ff ff 	lea    -0xf0(%rbp),%rcx
  4051d7:	48 8d 85 e0 fe ff ff 	lea    -0x120(%rbp),%rax
  4051de:	48 89 ce             	mov    %rcx,%rsi
  4051e1:	48 89 c7             	mov    %rax,%rdi
  4051e4:	e8 46 11 00 00       	callq  40632f <runSVD>
  4051e9:	48 8d 95 70 ff ff ff 	lea    -0x90(%rbp),%rdx
  4051f0:	48 8d 85 10 ff ff ff 	lea    -0xf0(%rbp),%rax
  4051f7:	48 89 d6             	mov    %rdx,%rsi
  4051fa:	48 89 c7             	mov    %rax,%rdi
  4051fd:	e8 2d f4 ff ff       	callq  40462f <transpose>
  405202:	48 8d 55 a0          	lea    -0x60(%rbp),%rdx
  405206:	48 8d 8d 70 ff ff ff 	lea    -0x90(%rbp),%rcx
  40520d:	48 8d 85 40 ff ff ff 	lea    -0xc0(%rbp),%rax
  405214:	48 89 ce             	mov    %rcx,%rsi
  405217:	48 89 c7             	mov    %rax,%rdi
  40521a:	e8 39 13 00 00       	callq  406558 <matMul3D>
  40521f:	48 8d 95 d0 fe ff ff 	lea    -0x130(%rbp),%rdx
  405226:	48 8d 8d a0 fe ff ff 	lea    -0x160(%rbp),%rcx
  40522d:	48 8d 45 a0          	lea    -0x60(%rbp),%rax
  405231:	48 89 ce             	mov    %rcx,%rsi
  405234:	48 89 c7             	mov    %rax,%rdi
  405237:	e8 cb f1 ff ff       	callq  404407 <matMulVec3D>
  40523c:	48 8d 95 c0 fe ff ff 	lea    -0x140(%rbp),%rdx
  405243:	48 8d 8d d0 fe ff ff 	lea    -0x130(%rbp),%rcx
  40524a:	48 8d 85 b0 fe ff ff 	lea    -0x150(%rbp),%rax
  405251:	48 89 ce             	mov    %rcx,%rsi
  405254:	48 89 c7             	mov    %rax,%rdi
  405257:	e8 11 ef ff ff       	callq  40416d <sub3D>
  40525c:	f3 0f 10 45 a0       	movss  -0x60(%rbp),%xmm0
  405261:	48 8b 85 58 fe ff ff 	mov    -0x1a8(%rbp),%rax
  405268:	f3 0f 11 00          	movss  %xmm0,(%rax)
  40526c:	f3 0f 10 45 a4       	movss  -0x5c(%rbp),%xmm0
  405271:	48 8b 85 58 fe ff ff 	mov    -0x1a8(%rbp),%rax
  405278:	f3 0f 11 40 04       	movss  %xmm0,0x4(%rax)
  40527d:	f3 0f 10 45 a8       	movss  -0x58(%rbp),%xmm0
  405282:	48 8b 85 58 fe ff ff 	mov    -0x1a8(%rbp),%rax
  405289:	f3 0f 11 40 08       	movss  %xmm0,0x8(%rax)
  40528e:	48 8b 85 58 fe ff ff 	mov    -0x1a8(%rbp),%rax
  405295:	48 83 c0 10          	add    $0x10,%rax
  405299:	f3 0f 10 45 ac       	movss  -0x54(%rbp),%xmm0
  40529e:	f3 0f 11 00          	movss  %xmm0,(%rax)
  4052a2:	48 8b 85 58 fe ff ff 	mov    -0x1a8(%rbp),%rax
  4052a9:	48 83 c0 10          	add    $0x10,%rax
  4052ad:	f3 0f 10 45 b0       	movss  -0x50(%rbp),%xmm0
  4052b2:	f3 0f 11 40 04       	movss  %xmm0,0x4(%rax)
  4052b7:	48 8b 85 58 fe ff ff 	mov    -0x1a8(%rbp),%rax
  4052be:	48 83 c0 10          	add    $0x10,%rax
  4052c2:	f3 0f 10 45 b4       	movss  -0x4c(%rbp),%xmm0
  4052c7:	f3 0f 11 40 08       	movss  %xmm0,0x8(%rax)
  4052cc:	48 8b 85 58 fe ff ff 	mov    -0x1a8(%rbp),%rax
  4052d3:	48 83 c0 20          	add    $0x20,%rax
  4052d7:	f3 0f 10 45 b8       	movss  -0x48(%rbp),%xmm0
  4052dc:	f3 0f 11 00          	movss  %xmm0,(%rax)
  4052e0:	48 8b 85 58 fe ff ff 	mov    -0x1a8(%rbp),%rax
  4052e7:	48 83 c0 20          	add    $0x20,%rax
  4052eb:	f3 0f 10 45 bc       	movss  -0x44(%rbp),%xmm0
  4052f0:	f3 0f 11 40 04       	movss  %xmm0,0x4(%rax)
  4052f5:	48 8b 85 58 fe ff ff 	mov    -0x1a8(%rbp),%rax
  4052fc:	48 83 c0 20          	add    $0x20,%rax
  405300:	f3 0f 10 45 c0       	movss  -0x40(%rbp),%xmm0
  405305:	f3 0f 11 40 08       	movss  %xmm0,0x8(%rax)
  40530a:	f3 0f 10 85 c0 fe ff 	movss  -0x140(%rbp),%xmm0
  405311:	ff 
  405312:	48 8b 85 58 fe ff ff 	mov    -0x1a8(%rbp),%rax
  405319:	f3 0f 11 40 0c       	movss  %xmm0,0xc(%rax)
  40531e:	48 8b 85 58 fe ff ff 	mov    -0x1a8(%rbp),%rax
  405325:	48 83 c0 10          	add    $0x10,%rax
  405329:	f3 0f 10 85 c4 fe ff 	movss  -0x13c(%rbp),%xmm0
  405330:	ff 
  405331:	f3 0f 11 40 0c       	movss  %xmm0,0xc(%rax)
  405336:	48 8b 85 58 fe ff ff 	mov    -0x1a8(%rbp),%rax
  40533d:	48 83 c0 20          	add    $0x20,%rax
  405341:	f3 0f 10 85 c8 fe ff 	movss  -0x138(%rbp),%xmm0
  405348:	ff 
  405349:	f3 0f 11 40 0c       	movss  %xmm0,0xc(%rax)
  40534e:	48 89 dc             	mov    %rbx,%rsp
  405351:	90                   	nop
  405352:	48 8b 45 c8          	mov    -0x38(%rbp),%rax
  405356:	64 48 33 04 25 28 00 	xor    %fs:0x28,%rax
  40535d:	00 00 
  40535f:	74 05                	je     405366 <calcTransform+0x4ef>
  405361:	e8 da bd ff ff       	callq  401140 <__stack_chk_fail@plt>
  405366:	48 8d 65 d8          	lea    -0x28(%rbp),%rsp
  40536a:	5b                   	pop    %rbx
  40536b:	41 5c                	pop    %r12
  40536d:	41 5d                	pop    %r13
  40536f:	41 5e                	pop    %r14
  405371:	41 5f                	pop    %r15
  405373:	5d                   	pop    %rbp
  405374:	c3                   	retq   

0000000000405375 <icp>:
  405375:	55                   	push   %rbp
  405376:	48 89 e5             	mov    %rsp,%rbp
  405379:	41 57                	push   %r15
  40537b:	41 56                	push   %r14
  40537d:	41 55                	push   %r13
  40537f:	41 54                	push   %r12
  405381:	53                   	push   %rbx
  405382:	48 81 ec 88 00 00 00 	sub    $0x88,%rsp
  405389:	48 89 7d 88          	mov    %rdi,-0x78(%rbp)
  40538d:	48 89 75 80          	mov    %rsi,-0x80(%rbp)
  405391:	48 89 95 78 ff ff ff 	mov    %rdx,-0x88(%rbp)
  405398:	89 8d 74 ff ff ff    	mov    %ecx,-0x8c(%rbp)
  40539e:	64 48 8b 04 25 28 00 	mov    %fs:0x28,%rax
  4053a5:	00 00 
  4053a7:	48 89 45 c8          	mov    %rax,-0x38(%rbp)
  4053ab:	31 c0                	xor    %eax,%eax
  4053ad:	48 89 e0             	mov    %rsp,%rax
  4053b0:	48 89 c3             	mov    %rax,%rbx
  4053b3:	8b 95 74 ff ff ff    	mov    -0x8c(%rbp),%edx
  4053b9:	89 d0                	mov    %edx,%eax
  4053bb:	48 83 e8 01          	sub    $0x1,%rax
  4053bf:	48 89 45 98          	mov    %rax,-0x68(%rbp)
  4053c3:	89 d0                	mov    %edx,%eax
  4053c5:	49 89 c2             	mov    %rax,%r10
  4053c8:	41 bb 00 00 00 00    	mov    $0x0,%r11d
  4053ce:	89 d0                	mov    %edx,%eax
  4053d0:	49 89 c0             	mov    %rax,%r8
  4053d3:	41 b9 00 00 00 00    	mov    $0x0,%r9d
  4053d9:	89 d0                	mov    %edx,%eax
  4053db:	48 c1 e0 04          	shl    $0x4,%rax
  4053df:	48 8d 50 03          	lea    0x3(%rax),%rdx
  4053e3:	b8 10 00 00 00       	mov    $0x10,%eax
  4053e8:	48 83 e8 01          	sub    $0x1,%rax
  4053ec:	48 01 d0             	add    %rdx,%rax
  4053ef:	bf 10 00 00 00       	mov    $0x10,%edi
  4053f4:	ba 00 00 00 00       	mov    $0x0,%edx
  4053f9:	48 f7 f7             	div    %rdi
  4053fc:	48 6b c0 10          	imul   $0x10,%rax,%rax
  405400:	48 29 c4             	sub    %rax,%rsp
  405403:	48 89 e0             	mov    %rsp,%rax
  405406:	48 83 c0 03          	add    $0x3,%rax
  40540a:	48 c1 e8 02          	shr    $0x2,%rax
  40540e:	48 c1 e0 02          	shl    $0x2,%rax
  405412:	48 89 45 a0          	mov    %rax,-0x60(%rbp)
  405416:	8b 85 74 ff ff ff    	mov    -0x8c(%rbp),%eax
  40541c:	48 c1 e0 04          	shl    $0x4,%rax
  405420:	48 89 c2             	mov    %rax,%rdx
  405423:	48 8b 45 a0          	mov    -0x60(%rbp),%rax
  405427:	48 8b 4d 88          	mov    -0x78(%rbp),%rcx
  40542b:	48 89 ce             	mov    %rcx,%rsi
  40542e:	48 89 c7             	mov    %rax,%rdi
  405431:	e8 3a bd ff ff       	callq  401170 <memcpy@plt>
  405436:	8b 95 74 ff ff ff    	mov    -0x8c(%rbp),%edx
  40543c:	48 8b 4d 88          	mov    -0x78(%rbp),%rcx
  405440:	48 8b 85 78 ff ff ff 	mov    -0x88(%rbp),%rax
  405447:	48 89 ce             	mov    %rcx,%rsi
  40544a:	48 89 c7             	mov    %rax,%rdi
  40544d:	e8 84 f5 ff ff       	callq  4049d6 <transform>
  405452:	8b 85 74 ff ff ff    	mov    -0x8c(%rbp),%eax
  405458:	89 c2                	mov    %eax,%edx
  40545a:	48 83 ea 01          	sub    $0x1,%rdx
  40545e:	48 89 55 a8          	mov    %rdx,-0x58(%rbp)
  405462:	89 c2                	mov    %eax,%edx
  405464:	48 89 95 60 ff ff ff 	mov    %rdx,-0xa0(%rbp)
  40546b:	48 c7 85 68 ff ff ff 	movq   $0x0,-0x98(%rbp)
  405472:	00 00 00 00 
  405476:	89 c2                	mov    %eax,%edx
  405478:	48 89 95 50 ff ff ff 	mov    %rdx,-0xb0(%rbp)
  40547f:	48 c7 85 58 ff ff ff 	movq   $0x0,-0xa8(%rbp)
  405486:	00 00 00 00 
  40548a:	89 c0                	mov    %eax,%eax
  40548c:	48 c1 e0 02          	shl    $0x2,%rax
  405490:	48 8d 50 03          	lea    0x3(%rax),%rdx
  405494:	b8 10 00 00 00       	mov    $0x10,%eax
  405499:	48 83 e8 01          	sub    $0x1,%rax
  40549d:	48 01 d0             	add    %rdx,%rax
  4054a0:	bf 10 00 00 00       	mov    $0x10,%edi
  4054a5:	ba 00 00 00 00       	mov    $0x0,%edx
  4054aa:	48 f7 f7             	div    %rdi
  4054ad:	48 6b c0 10          	imul   $0x10,%rax,%rax
  4054b1:	48 29 c4             	sub    %rax,%rsp
  4054b4:	48 89 e0             	mov    %rsp,%rax
  4054b7:	48 83 c0 03          	add    $0x3,%rax
  4054bb:	48 c1 e8 02          	shr    $0x2,%rax
  4054bf:	48 c1 e0 02          	shl    $0x2,%rax
  4054c3:	48 89 45 b0          	mov    %rax,-0x50(%rbp)
  4054c7:	8b 85 74 ff ff ff    	mov    -0x8c(%rbp),%eax
  4054cd:	89 c2                	mov    %eax,%edx
  4054cf:	48 83 ea 01          	sub    $0x1,%rdx
  4054d3:	48 89 55 b8          	mov    %rdx,-0x48(%rbp)
  4054d7:	89 c2                	mov    %eax,%edx
  4054d9:	49 89 d6             	mov    %rdx,%r14
  4054dc:	41 bf 00 00 00 00    	mov    $0x0,%r15d
  4054e2:	89 c2                	mov    %eax,%edx
  4054e4:	49 89 d4             	mov    %rdx,%r12
  4054e7:	41 bd 00 00 00 00    	mov    $0x0,%r13d
  4054ed:	89 c0                	mov    %eax,%eax
  4054ef:	48 c1 e0 04          	shl    $0x4,%rax
  4054f3:	48 8d 50 03          	lea    0x3(%rax),%rdx
  4054f7:	b8 10 00 00 00       	mov    $0x10,%eax
  4054fc:	48 83 e8 01          	sub    $0x1,%rax
  405500:	48 01 d0             	add    %rdx,%rax
  405503:	be 10 00 00 00       	mov    $0x10,%esi
  405508:	ba 00 00 00 00       	mov    $0x0,%edx
  40550d:	48 f7 f6             	div    %rsi
  405510:	48 6b c0 10          	imul   $0x10,%rax,%rax
  405514:	48 29 c4             	sub    %rax,%rsp
  405517:	48 89 e0             	mov    %rsp,%rax
  40551a:	48 83 c0 03          	add    $0x3,%rax
  40551e:	48 c1 e8 02          	shr    $0x2,%rax
  405522:	48 c1 e0 02          	shl    $0x2,%rax
  405526:	48 89 45 c0          	mov    %rax,-0x40(%rbp)
  40552a:	c6 45 93 00          	movb   $0x0,-0x6d(%rbp)
  40552e:	e9 b5 00 00 00       	jmpq   4055e8 <icp+0x273>
  405533:	66 0f ef c0          	pxor   %xmm0,%xmm0
  405537:	f3 0f 11 45 94       	movss  %xmm0,-0x6c(%rbp)
  40553c:	48 8b 55 b0          	mov    -0x50(%rbp),%rdx
  405540:	48 8b 75 c0          	mov    -0x40(%rbp),%rsi
  405544:	8b bd 74 ff ff ff    	mov    -0x8c(%rbp),%edi
  40554a:	48 8b 4d 80          	mov    -0x80(%rbp),%rcx
  40554e:	48 8b 45 88          	mov    -0x78(%rbp),%rax
  405552:	41 89 f8             	mov    %edi,%r8d
  405555:	48 89 c7             	mov    %rax,%rdi
  405558:	e8 9c e3 ff ff       	callq  4038f9 <runSearch>
  40555d:	48 8b 75 c0          	mov    -0x40(%rbp),%rsi
  405561:	8b 8d 74 ff ff ff    	mov    -0x8c(%rbp),%ecx
  405567:	48 8b 95 78 ff ff ff 	mov    -0x88(%rbp),%rdx
  40556e:	48 8b 45 88          	mov    -0x78(%rbp),%rax
  405572:	48 89 c7             	mov    %rax,%rdi
  405575:	e8 fd f8 ff ff       	callq  404e77 <calcTransform>
  40557a:	8b 95 74 ff ff ff    	mov    -0x8c(%rbp),%edx
  405580:	48 8b 4d 88          	mov    -0x78(%rbp),%rcx
  405584:	48 8b 85 78 ff ff ff 	mov    -0x88(%rbp),%rax
  40558b:	48 89 ce             	mov    %rcx,%rsi
  40558e:	48 89 c7             	mov    %rax,%rdi
  405591:	e8 40 f4 ff ff       	callq  4049d6 <transform>
  405596:	48 8b 45 b0          	mov    -0x50(%rbp),%rax
  40559a:	8b 95 74 ff ff ff    	mov    -0x8c(%rbp),%edx
  4055a0:	48 8d 4d 94          	lea    -0x6c(%rbp),%rcx
  4055a4:	48 89 ce             	mov    %rcx,%rsi
  4055a7:	48 89 c7             	mov    %rax,%rdi
  4055aa:	e8 ec ef ff ff       	callq  40459b <meanVec>
  4055af:	f3 0f 10 45 94       	movss  -0x6c(%rbp),%xmm0
  4055b4:	f3 0f 5a c0          	cvtss2sd %xmm0,%xmm0
  4055b8:	bf cb 85 40 00       	mov    $0x4085cb,%edi
  4055bd:	b8 01 00 00 00       	mov    $0x1,%eax
  4055c2:	e8 89 bb ff ff       	callq  401150 <printf@plt>
  4055c7:	f3 0f 10 45 94       	movss  -0x6c(%rbp),%xmm0
  4055cc:	f3 0f 5a c0          	cvtss2sd %xmm0,%xmm0
  4055d0:	f2 0f 10 0d f8 2f 00 	movsd  0x2ff8(%rip),%xmm1        # 4085d0 <_IO_stdin_used+0x100>
  4055d7:	00 
  4055d8:	66 0f 2e c8          	ucomisd %xmm0,%xmm1
  4055dc:	73 16                	jae    4055f4 <icp+0x27f>
  4055de:	0f b6 45 93          	movzbl -0x6d(%rbp),%eax
  4055e2:	83 c0 01             	add    $0x1,%eax
  4055e5:	88 45 93             	mov    %al,-0x6d(%rbp)
  4055e8:	80 7d 93 04          	cmpb   $0x4,-0x6d(%rbp)
  4055ec:	0f 86 41 ff ff ff    	jbe    405533 <icp+0x1be>
  4055f2:	eb 01                	jmp    4055f5 <icp+0x280>
  4055f4:	90                   	nop
  4055f5:	48 8b 45 a0          	mov    -0x60(%rbp),%rax
  4055f9:	8b 8d 74 ff ff ff    	mov    -0x8c(%rbp),%ecx
  4055ff:	48 8b 95 78 ff ff ff 	mov    -0x88(%rbp),%rdx
  405606:	48 8b 75 88          	mov    -0x78(%rbp),%rsi
  40560a:	48 89 c7             	mov    %rax,%rdi
  40560d:	e8 65 f8 ff ff       	callq  404e77 <calcTransform>
  405612:	48 89 dc             	mov    %rbx,%rsp
  405615:	90                   	nop
  405616:	48 8b 45 c8          	mov    -0x38(%rbp),%rax
  40561a:	64 48 33 04 25 28 00 	xor    %fs:0x28,%rax
  405621:	00 00 
  405623:	74 05                	je     40562a <icp+0x2b5>
  405625:	e8 16 bb ff ff       	callq  401140 <__stack_chk_fail@plt>
  40562a:	48 8d 65 d8          	lea    -0x28(%rbp),%rsp
  40562e:	5b                   	pop    %rbx
  40562f:	41 5c                	pop    %r12
  405631:	41 5d                	pop    %r13
  405633:	41 5e                	pop    %r14
  405635:	41 5f                	pop    %r15
  405637:	5d                   	pop    %rbp
  405638:	c3                   	retq   

0000000000405639 <_Z18QRGivensQuaternionffRfS_>:
  405639:	55                   	push   %rbp
  40563a:	48 89 e5             	mov    %rsp,%rbp
  40563d:	48 83 ec 30          	sub    $0x30,%rsp
  405641:	f3 0f 11 45 ec       	movss  %xmm0,-0x14(%rbp)
  405646:	f3 0f 11 4d e8       	movss  %xmm1,-0x18(%rbp)
  40564b:	48 89 7d e0          	mov    %rdi,-0x20(%rbp)
  40564f:	48 89 75 d8          	mov    %rsi,-0x28(%rbp)
  405653:	f3 0f 10 05 bd 2f 00 	movss  0x2fbd(%rip),%xmm0        # 408618 <_IO_stdin_used+0x148>
  40565a:	00 
  40565b:	f3 0f 11 45 f4       	movss  %xmm0,-0xc(%rbp)
  405660:	f3 0f 10 45 ec       	movss  -0x14(%rbp),%xmm0
  405665:	0f 28 c8             	movaps %xmm0,%xmm1
  405668:	f3 0f 59 4d ec       	mulss  -0x14(%rbp),%xmm1
  40566d:	f3 0f 10 45 e8       	movss  -0x18(%rbp),%xmm0
  405672:	f3 0f 59 45 e8       	mulss  -0x18(%rbp),%xmm0
  405677:	f3 0f 58 c1          	addss  %xmm1,%xmm0
  40567b:	e8 41 12 00 00       	callq  4068c1 <_Z12accurateSqrtf>
  405680:	66 0f 7e c0          	movd   %xmm0,%eax
  405684:	89 45 f8             	mov    %eax,-0x8(%rbp)
  405687:	f3 0f 10 45 f8       	movss  -0x8(%rbp),%xmm0
  40568c:	0f 2e 45 f4          	ucomiss -0xc(%rbp),%xmm0
  405690:	76 07                	jbe    405699 <_Z18QRGivensQuaternionffRfS_+0x60>
  405692:	f3 0f 10 45 e8       	movss  -0x18(%rbp),%xmm0
  405697:	eb 04                	jmp    40569d <_Z18QRGivensQuaternionffRfS_+0x64>
  405699:	66 0f ef c0          	pxor   %xmm0,%xmm0
  40569d:	48 8b 45 d8          	mov    -0x28(%rbp),%rax
  4056a1:	f3 0f 11 00          	movss  %xmm0,(%rax)
  4056a5:	f3 0f 10 4d ec       	movss  -0x14(%rbp),%xmm1
  4056aa:	f3 0f 10 05 6e 2f 00 	movss  0x2f6e(%rip),%xmm0        # 408620 <_IO_stdin_used+0x150>
  4056b1:	00 
  4056b2:	0f 54 c8             	andps  %xmm0,%xmm1
  4056b5:	f3 0f 11 4d d4       	movss  %xmm1,-0x2c(%rbp)
  4056ba:	f3 0f 10 45 f4       	movss  -0xc(%rbp),%xmm0
  4056bf:	8b 45 f8             	mov    -0x8(%rbp),%eax
  4056c2:	0f 28 c8             	movaps %xmm0,%xmm1
  4056c5:	89 45 d0             	mov    %eax,-0x30(%rbp)
  4056c8:	f3 0f 10 45 d0       	movss  -0x30(%rbp),%xmm0
  4056cd:	e8 ce ba ff ff       	callq  4011a0 <fmaxf@plt>
  4056d2:	f3 0f 58 45 d4       	addss  -0x2c(%rbp),%xmm0
  4056d7:	48 8b 45 e0          	mov    -0x20(%rbp),%rax
  4056db:	f3 0f 11 00          	movss  %xmm0,(%rax)
  4056df:	66 0f ef c0          	pxor   %xmm0,%xmm0
  4056e3:	0f 2e 45 ec          	ucomiss -0x14(%rbp),%xmm0
  4056e7:	0f 97 c0             	seta   %al
  4056ea:	88 45 f3             	mov    %al,-0xd(%rbp)
  4056ed:	0f b6 45 f3          	movzbl -0xd(%rbp),%eax
  4056f1:	48 8b 55 e0          	mov    -0x20(%rbp),%rdx
  4056f5:	48 8b 4d d8          	mov    -0x28(%rbp),%rcx
  4056f9:	48 89 ce             	mov    %rcx,%rsi
  4056fc:	89 c7                	mov    %eax,%edi
  4056fe:	e8 e2 11 00 00       	callq  4068e5 <_Z8condSwapbRfS_>
  405703:	48 8b 45 e0          	mov    -0x20(%rbp),%rax
  405707:	f3 0f 10 08          	movss  (%rax),%xmm1
  40570b:	48 8b 45 e0          	mov    -0x20(%rbp),%rax
  40570f:	f3 0f 10 00          	movss  (%rax),%xmm0
  405713:	f3 0f 59 c8          	mulss  %xmm0,%xmm1
  405717:	48 8b 45 d8          	mov    -0x28(%rbp),%rax
  40571b:	f3 0f 10 10          	movss  (%rax),%xmm2
  40571f:	48 8b 45 d8          	mov    -0x28(%rbp),%rax
  405723:	f3 0f 10 00          	movss  (%rax),%xmm0
  405727:	f3 0f 59 c2          	mulss  %xmm2,%xmm0
  40572b:	f3 0f 58 c1          	addss  %xmm1,%xmm0
  40572f:	e8 15 10 00 00       	callq  406749 <_Z5rsqrtf>
  405734:	66 0f 7e c0          	movd   %xmm0,%eax
  405738:	89 45 fc             	mov    %eax,-0x4(%rbp)
  40573b:	48 8b 45 e0          	mov    -0x20(%rbp),%rax
  40573f:	f3 0f 10 00          	movss  (%rax),%xmm0
  405743:	f3 0f 59 45 fc       	mulss  -0x4(%rbp),%xmm0
  405748:	48 8b 45 e0          	mov    -0x20(%rbp),%rax
  40574c:	f3 0f 11 00          	movss  %xmm0,(%rax)
  405750:	48 8b 45 d8          	mov    -0x28(%rbp),%rax
  405754:	f3 0f 10 00          	movss  (%rax),%xmm0
  405758:	f3 0f 59 45 fc       	mulss  -0x4(%rbp),%xmm0
  40575d:	48 8b 45 d8          	mov    -0x28(%rbp),%rax
  405761:	f3 0f 11 00          	movss  %xmm0,(%rax)
  405765:	90                   	nop
  405766:	c9                   	leaveq 
  405767:	c3                   	retq   

0000000000405768 <_Z3svdfffffffffRfS_S_S_S_S_S_S_S_S_S_S_S_S_S_S_S_S_S_S_S_S_S_S_S_S_S_>:
  405768:	55                   	push   %rbp
  405769:	48 89 e5             	mov    %rsp,%rbp
  40576c:	48 81 ec 70 01 00 00 	sub    $0x170,%rsp
  405773:	f3 0f 11 45 8c       	movss  %xmm0,-0x74(%rbp)
  405778:	f3 0f 11 4d 88       	movss  %xmm1,-0x78(%rbp)
  40577d:	f3 0f 11 55 84       	movss  %xmm2,-0x7c(%rbp)
  405782:	f3 0f 11 5d 80       	movss  %xmm3,-0x80(%rbp)
  405787:	f3 0f 11 a5 7c ff ff 	movss  %xmm4,-0x84(%rbp)
  40578e:	ff 
  40578f:	f3 0f 11 ad 78 ff ff 	movss  %xmm5,-0x88(%rbp)
  405796:	ff 
  405797:	f3 0f 11 b5 74 ff ff 	movss  %xmm6,-0x8c(%rbp)
  40579e:	ff 
  40579f:	f3 0f 11 bd 70 ff ff 	movss  %xmm7,-0x90(%rbp)
  4057a6:	ff 
  4057a7:	48 89 bd 68 ff ff ff 	mov    %rdi,-0x98(%rbp)
  4057ae:	48 89 b5 60 ff ff ff 	mov    %rsi,-0xa0(%rbp)
  4057b5:	48 89 95 58 ff ff ff 	mov    %rdx,-0xa8(%rbp)
  4057bc:	48 89 8d 50 ff ff ff 	mov    %rcx,-0xb0(%rbp)
  4057c3:	4c 89 85 48 ff ff ff 	mov    %r8,-0xb8(%rbp)
  4057ca:	4c 89 8d 40 ff ff ff 	mov    %r9,-0xc0(%rbp)
  4057d1:	48 8b 45 18          	mov    0x18(%rbp),%rax
  4057d5:	48 89 85 38 ff ff ff 	mov    %rax,-0xc8(%rbp)
  4057dc:	48 8b 45 20          	mov    0x20(%rbp),%rax
  4057e0:	48 89 85 30 ff ff ff 	mov    %rax,-0xd0(%rbp)
  4057e7:	48 8b 45 28          	mov    0x28(%rbp),%rax
  4057eb:	48 89 85 28 ff ff ff 	mov    %rax,-0xd8(%rbp)
  4057f2:	48 8b 45 30          	mov    0x30(%rbp),%rax
  4057f6:	48 89 85 20 ff ff ff 	mov    %rax,-0xe0(%rbp)
  4057fd:	48 8b 45 38          	mov    0x38(%rbp),%rax
  405801:	48 89 85 18 ff ff ff 	mov    %rax,-0xe8(%rbp)
  405808:	48 8b 45 40          	mov    0x40(%rbp),%rax
  40580c:	48 89 85 10 ff ff ff 	mov    %rax,-0xf0(%rbp)
  405813:	48 8b 45 48          	mov    0x48(%rbp),%rax
  405817:	48 89 85 08 ff ff ff 	mov    %rax,-0xf8(%rbp)
  40581e:	48 8b 45 50          	mov    0x50(%rbp),%rax
  405822:	48 89 85 00 ff ff ff 	mov    %rax,-0x100(%rbp)
  405829:	48 8b 45 58          	mov    0x58(%rbp),%rax
  40582d:	48 89 85 f8 fe ff ff 	mov    %rax,-0x108(%rbp)
  405834:	48 8b 45 60          	mov    0x60(%rbp),%rax
  405838:	48 89 85 f0 fe ff ff 	mov    %rax,-0x110(%rbp)
  40583f:	48 8b 45 68          	mov    0x68(%rbp),%rax
  405843:	48 89 85 e8 fe ff ff 	mov    %rax,-0x118(%rbp)
  40584a:	48 8b 45 70          	mov    0x70(%rbp),%rax
  40584e:	48 89 85 e0 fe ff ff 	mov    %rax,-0x120(%rbp)
  405855:	48 8b 45 78          	mov    0x78(%rbp),%rax
  405859:	48 89 85 d8 fe ff ff 	mov    %rax,-0x128(%rbp)
  405860:	48 8b 85 80 00 00 00 	mov    0x80(%rbp),%rax
  405867:	48 89 85 d0 fe ff ff 	mov    %rax,-0x130(%rbp)
  40586e:	48 8b 85 88 00 00 00 	mov    0x88(%rbp),%rax
  405875:	48 89 85 c8 fe ff ff 	mov    %rax,-0x138(%rbp)
  40587c:	48 8b 85 90 00 00 00 	mov    0x90(%rbp),%rax
  405883:	48 89 85 c0 fe ff ff 	mov    %rax,-0x140(%rbp)
  40588a:	48 8b 85 98 00 00 00 	mov    0x98(%rbp),%rax
  405891:	48 89 85 b8 fe ff ff 	mov    %rax,-0x148(%rbp)
  405898:	48 8b 85 a0 00 00 00 	mov    0xa0(%rbp),%rax
  40589f:	48 89 85 b0 fe ff ff 	mov    %rax,-0x150(%rbp)
  4058a6:	48 8b 85 a8 00 00 00 	mov    0xa8(%rbp),%rax
  4058ad:	48 89 85 a8 fe ff ff 	mov    %rax,-0x158(%rbp)
  4058b4:	48 8b 85 b0 00 00 00 	mov    0xb0(%rbp),%rax
  4058bb:	48 89 85 a0 fe ff ff 	mov    %rax,-0x160(%rbp)
  4058c2:	48 8b 85 b8 00 00 00 	mov    0xb8(%rbp),%rax
  4058c9:	48 89 85 98 fe ff ff 	mov    %rax,-0x168(%rbp)
  4058d0:	64 48 8b 04 25 28 00 	mov    %fs:0x28,%rax
  4058d7:	00 00 
  4058d9:	48 89 45 f8          	mov    %rax,-0x8(%rbp)
  4058dd:	31 c0                	xor    %eax,%eax
  4058df:	4c 8d 4d ac          	lea    -0x54(%rbp),%r9
  4058e3:	4c 8d 55 a8          	lea    -0x58(%rbp),%r10
  4058e7:	48 8d 4d a4          	lea    -0x5c(%rbp),%rcx
  4058eb:	48 8d 55 a0          	lea    -0x60(%rbp),%rdx
  4058ef:	48 8d 75 9c          	lea    -0x64(%rbp),%rsi
  4058f3:	48 8d 7d 98          	lea    -0x68(%rbp),%rdi
  4058f7:	f3 0f 10 bd 70 ff ff 	movss  -0x90(%rbp),%xmm7
  4058fe:	ff 
  4058ff:	f3 0f 10 b5 74 ff ff 	movss  -0x8c(%rbp),%xmm6
  405906:	ff 
  405907:	f3 0f 10 ad 78 ff ff 	movss  -0x88(%rbp),%xmm5
  40590e:	ff 
  40590f:	f3 0f 10 a5 7c ff ff 	movss  -0x84(%rbp),%xmm4
  405916:	ff 
  405917:	f3 0f 10 5d 80       	movss  -0x80(%rbp),%xmm3
  40591c:	f3 0f 10 55 84       	movss  -0x7c(%rbp),%xmm2
  405921:	f3 0f 10 4d 88       	movss  -0x78(%rbp),%xmm1
  405926:	8b 45 8c             	mov    -0x74(%rbp),%eax
  405929:	48 83 ec 08          	sub    $0x8,%rsp
  40592d:	4c 8d 45 b8          	lea    -0x48(%rbp),%r8
  405931:	41 50                	push   %r8
  405933:	4c 8d 45 b4          	lea    -0x4c(%rbp),%r8
  405937:	41 50                	push   %r8
  405939:	4c 8d 45 b0          	lea    -0x50(%rbp),%r8
  40593d:	41 50                	push   %r8
  40593f:	f3 0f 10 45 10       	movss  0x10(%rbp),%xmm0
  405944:	48 8d 64 24 f8       	lea    -0x8(%rsp),%rsp
  405949:	f3 0f 11 04 24       	movss  %xmm0,(%rsp)
  40594e:	f3 0f 10 85 70 ff ff 	movss  -0x90(%rbp),%xmm0
  405955:	ff 
  405956:	48 8d 64 24 f8       	lea    -0x8(%rsp),%rsp
  40595b:	f3 0f 11 04 24       	movss  %xmm0,(%rsp)
  405960:	f3 0f 10 85 74 ff ff 	movss  -0x8c(%rbp),%xmm0
  405967:	ff 
  405968:	48 8d 64 24 f8       	lea    -0x8(%rsp),%rsp
  40596d:	f3 0f 11 04 24       	movss  %xmm0,(%rsp)
  405972:	f3 0f 10 85 78 ff ff 	movss  -0x88(%rbp),%xmm0
  405979:	ff 
  40597a:	48 8d 64 24 f8       	lea    -0x8(%rsp),%rsp
  40597f:	f3 0f 11 04 24       	movss  %xmm0,(%rsp)
  405984:	f3 0f 10 85 7c ff ff 	movss  -0x84(%rbp),%xmm0
  40598b:	ff 
  40598c:	48 8d 64 24 f8       	lea    -0x8(%rsp),%rsp
  405991:	f3 0f 11 04 24       	movss  %xmm0,(%rsp)
  405996:	f3 0f 10 45 80       	movss  -0x80(%rbp),%xmm0
  40599b:	48 8d 64 24 f8       	lea    -0x8(%rsp),%rsp
  4059a0:	f3 0f 11 04 24       	movss  %xmm0,(%rsp)
  4059a5:	f3 0f 10 45 84       	movss  -0x7c(%rbp),%xmm0
  4059aa:	48 8d 64 24 f8       	lea    -0x8(%rsp),%rsp
  4059af:	f3 0f 11 04 24       	movss  %xmm0,(%rsp)
  4059b4:	f3 0f 10 45 88       	movss  -0x78(%rbp),%xmm0
  4059b9:	48 8d 64 24 f8       	lea    -0x8(%rsp),%rsp
  4059be:	f3 0f 11 04 24       	movss  %xmm0,(%rsp)
  4059c3:	f3 0f 10 45 8c       	movss  -0x74(%rbp),%xmm0
  4059c8:	48 8d 64 24 f8       	lea    -0x8(%rsp),%rsp
  4059cd:	f3 0f 11 04 24       	movss  %xmm0,(%rsp)
  4059d2:	f3 0f 10 45 10       	movss  0x10(%rbp),%xmm0
  4059d7:	48 8d 64 24 f8       	lea    -0x8(%rsp),%rsp
  4059dc:	f3 0f 11 04 24       	movss  %xmm0,(%rsp)
  4059e1:	4d 89 d0             	mov    %r10,%r8
  4059e4:	89 85 94 fe ff ff    	mov    %eax,-0x16c(%rbp)
  4059ea:	f3 0f 10 85 94 fe ff 	movss  -0x16c(%rbp),%xmm0
  4059f1:	ff 
  4059f2:	e8 b5 11 00 00       	callq  406bac <_Z7multAtBffffffffffffffffffRfS_S_S_S_S_S_S_S_>
  4059f7:	48 83 c4 70          	add    $0x70,%rsp
  4059fb:	4c 8d 4d b8          	lea    -0x48(%rbp),%r9
  4059ff:	4c 8d 45 b4          	lea    -0x4c(%rbp),%r8
  405a03:	48 8d 4d b0          	lea    -0x50(%rbp),%rcx
  405a07:	48 8d 55 a8          	lea    -0x58(%rbp),%rdx
  405a0b:	48 8d 75 a4          	lea    -0x5c(%rbp),%rsi
  405a0f:	48 8d 45 98          	lea    -0x68(%rbp),%rax
  405a13:	48 83 ec 08          	sub    $0x8,%rsp
  405a17:	48 8d 7d e0          	lea    -0x20(%rbp),%rdi
  405a1b:	57                   	push   %rdi
  405a1c:	48 89 c7             	mov    %rax,%rdi
  405a1f:	e8 47 1c 00 00       	callq  40766b <_Z18jacobiEigenanlysisRfS_S_S_S_S_Pf>
  405a24:	48 83 c4 10          	add    $0x10,%rsp
  405a28:	4c 8b 85 b8 fe ff ff 	mov    -0x148(%rbp),%r8
  405a2f:	48 8b bd c0 fe ff ff 	mov    -0x140(%rbp),%rdi
  405a36:	48 8b 8d c8 fe ff ff 	mov    -0x138(%rbp),%rcx
  405a3d:	48 8b 95 d0 fe ff ff 	mov    -0x130(%rbp),%rdx
  405a44:	48 8b b5 d8 fe ff ff 	mov    -0x128(%rbp),%rsi
  405a4b:	48 8d 45 e0          	lea    -0x20(%rbp),%rax
  405a4f:	ff b5 98 fe ff ff    	pushq  -0x168(%rbp)
  405a55:	ff b5 a0 fe ff ff    	pushq  -0x160(%rbp)
  405a5b:	ff b5 a8 fe ff ff    	pushq  -0x158(%rbp)
  405a61:	ff b5 b0 fe ff ff    	pushq  -0x150(%rbp)
  405a67:	4d 89 c1             	mov    %r8,%r9
  405a6a:	49 89 f8             	mov    %rdi,%r8
  405a6d:	48 89 c7             	mov    %rax,%rdi
  405a70:	e8 37 13 00 00       	callq  406dac <_Z10quatToMat3PKfRfS1_S1_S1_S1_S1_S1_S1_S1_>
  405a75:	48 83 c4 20          	add    $0x20,%rsp
  405a79:	48 8b 85 98 fe ff ff 	mov    -0x168(%rbp),%rax
  405a80:	f3 44 0f 10 00       	movss  (%rax),%xmm8
  405a85:	48 8b 85 a0 fe ff ff 	mov    -0x160(%rbp),%rax
  405a8c:	f3 0f 10 38          	movss  (%rax),%xmm7
  405a90:	48 8b 85 a8 fe ff ff 	mov    -0x158(%rbp),%rax
  405a97:	f3 0f 10 30          	movss  (%rax),%xmm6
  405a9b:	48 8b 85 b0 fe ff ff 	mov    -0x150(%rbp),%rax
  405aa2:	f3 0f 10 28          	movss  (%rax),%xmm5
  405aa6:	48 8b 85 b8 fe ff ff 	mov    -0x148(%rbp),%rax
  405aad:	f3 0f 10 20          	movss  (%rax),%xmm4
  405ab1:	48 8b 85 c0 fe ff ff 	mov    -0x140(%rbp),%rax
  405ab8:	f3 0f 10 18          	movss  (%rax),%xmm3
  405abc:	48 8b 85 c8 fe ff ff 	mov    -0x138(%rbp),%rax
  405ac3:	f3 0f 10 10          	movss  (%rax),%xmm2
  405ac7:	48 8b 85 d0 fe ff ff 	mov    -0x130(%rbp),%rax
  405ace:	f3 0f 10 08          	movss  (%rax),%xmm1
  405ad2:	48 8b 85 d8 fe ff ff 	mov    -0x128(%rbp),%rax
  405ad9:	f3 0f 10 00          	movss  (%rax),%xmm0
  405add:	4c 8d 4d d0          	lea    -0x30(%rbp),%r9
  405ae1:	4c 8d 55 cc          	lea    -0x34(%rbp),%r10
  405ae5:	48 8d 4d c8          	lea    -0x38(%rbp),%rcx
  405ae9:	48 8d 55 c4          	lea    -0x3c(%rbp),%rdx
  405aed:	48 8d 75 c0          	lea    -0x40(%rbp),%rsi
  405af1:	48 8d 7d bc          	lea    -0x44(%rbp),%rdi
  405af5:	f3 44 0f 10 bd 70 ff 	movss  -0x90(%rbp),%xmm15
  405afc:	ff ff 
  405afe:	f3 44 0f 10 b5 74 ff 	movss  -0x8c(%rbp),%xmm14
  405b05:	ff ff 
  405b07:	f3 44 0f 10 ad 78 ff 	movss  -0x88(%rbp),%xmm13
  405b0e:	ff ff 
  405b10:	f3 44 0f 10 a5 7c ff 	movss  -0x84(%rbp),%xmm12
  405b17:	ff ff 
  405b19:	f3 44 0f 10 5d 80    	movss  -0x80(%rbp),%xmm11
  405b1f:	f3 44 0f 10 55 84    	movss  -0x7c(%rbp),%xmm10
  405b25:	f3 44 0f 10 4d 88    	movss  -0x78(%rbp),%xmm9
  405b2b:	8b 45 8c             	mov    -0x74(%rbp),%eax
  405b2e:	48 83 ec 08          	sub    $0x8,%rsp
  405b32:	4c 8d 45 dc          	lea    -0x24(%rbp),%r8
  405b36:	41 50                	push   %r8
  405b38:	4c 8d 45 d8          	lea    -0x28(%rbp),%r8
  405b3c:	41 50                	push   %r8
  405b3e:	4c 8d 45 d4          	lea    -0x2c(%rbp),%r8
  405b42:	41 50                	push   %r8
  405b44:	48 8d 64 24 f8       	lea    -0x8(%rsp),%rsp
  405b49:	f3 44 0f 11 04 24    	movss  %xmm8,(%rsp)
  405b4f:	48 8d 64 24 f8       	lea    -0x8(%rsp),%rsp
  405b54:	f3 0f 11 3c 24       	movss  %xmm7,(%rsp)
  405b59:	48 8d 64 24 f8       	lea    -0x8(%rsp),%rsp
  405b5e:	f3 0f 11 34 24       	movss  %xmm6,(%rsp)
  405b63:	48 8d 64 24 f8       	lea    -0x8(%rsp),%rsp
  405b68:	f3 0f 11 2c 24       	movss  %xmm5,(%rsp)
  405b6d:	48 8d 64 24 f8       	lea    -0x8(%rsp),%rsp
  405b72:	f3 0f 11 24 24       	movss  %xmm4,(%rsp)
  405b77:	48 8d 64 24 f8       	lea    -0x8(%rsp),%rsp
  405b7c:	f3 0f 11 1c 24       	movss  %xmm3,(%rsp)
  405b81:	48 8d 64 24 f8       	lea    -0x8(%rsp),%rsp
  405b86:	f3 0f 11 14 24       	movss  %xmm2,(%rsp)
  405b8b:	48 8d 64 24 f8       	lea    -0x8(%rsp),%rsp
  405b90:	f3 0f 11 0c 24       	movss  %xmm1,(%rsp)
  405b95:	48 8d 64 24 f8       	lea    -0x8(%rsp),%rsp
  405b9a:	f3 0f 11 04 24       	movss  %xmm0,(%rsp)
  405b9f:	f3 0f 10 45 10       	movss  0x10(%rbp),%xmm0
  405ba4:	48 8d 64 24 f8       	lea    -0x8(%rsp),%rsp
  405ba9:	f3 0f 11 04 24       	movss  %xmm0,(%rsp)
  405bae:	4d 89 d0             	mov    %r10,%r8
  405bb1:	41 0f 28 ff          	movaps %xmm15,%xmm7
  405bb5:	41 0f 28 f6          	movaps %xmm14,%xmm6
  405bb9:	41 0f 28 ed          	movaps %xmm13,%xmm5
  405bbd:	41 0f 28 e4          	movaps %xmm12,%xmm4
  405bc1:	41 0f 28 db          	movaps %xmm11,%xmm3
  405bc5:	41 0f 28 d2          	movaps %xmm10,%xmm2
  405bc9:	41 0f 28 c9          	movaps %xmm9,%xmm1
  405bcd:	89 85 94 fe ff ff    	mov    %eax,-0x16c(%rbp)
  405bd3:	f3 0f 10 85 94 fe ff 	movss  -0x16c(%rbp),%xmm0
  405bda:	ff 
  405bdb:	e8 cc 0d 00 00       	callq  4069ac <_Z6multABffffffffffffffffffRfS_S_S_S_S_S_S_S_>
  405be0:	48 83 c4 70          	add    $0x70,%rsp
  405be4:	4c 8d 4d d0          	lea    -0x30(%rbp),%r9
  405be8:	4c 8d 45 cc          	lea    -0x34(%rbp),%r8
  405bec:	48 8d 4d c8          	lea    -0x38(%rbp),%rcx
  405bf0:	48 8d 55 c4          	lea    -0x3c(%rbp),%rdx
  405bf4:	48 8d 75 c0          	lea    -0x40(%rbp),%rsi
  405bf8:	48 8d 45 bc          	lea    -0x44(%rbp),%rax
  405bfc:	ff b5 98 fe ff ff    	pushq  -0x168(%rbp)
  405c02:	ff b5 a0 fe ff ff    	pushq  -0x160(%rbp)
  405c08:	ff b5 a8 fe ff ff    	pushq  -0x158(%rbp)
  405c0e:	ff b5 b0 fe ff ff    	pushq  -0x150(%rbp)
  405c14:	ff b5 b8 fe ff ff    	pushq  -0x148(%rbp)
  405c1a:	ff b5 c0 fe ff ff    	pushq  -0x140(%rbp)
  405c20:	ff b5 c8 fe ff ff    	pushq  -0x138(%rbp)
  405c26:	ff b5 d0 fe ff ff    	pushq  -0x130(%rbp)
  405c2c:	ff b5 d8 fe ff ff    	pushq  -0x128(%rbp)
  405c32:	48 8d 7d dc          	lea    -0x24(%rbp),%rdi
  405c36:	57                   	push   %rdi
  405c37:	48 8d 7d d8          	lea    -0x28(%rbp),%rdi
  405c3b:	57                   	push   %rdi
  405c3c:	48 8d 7d d4          	lea    -0x2c(%rbp),%rdi
  405c40:	57                   	push   %rdi
  405c41:	48 89 c7             	mov    %rax,%rdi
  405c44:	e8 4a 1b 00 00       	callq  407793 <_Z18sortSingularValuesRfS_S_S_S_S_S_S_S_S_S_S_S_S_S_S_S_S_>
  405c49:	48 83 c4 60          	add    $0x60,%rsp
  405c4d:	f3 0f 10 45 dc       	movss  -0x24(%rbp),%xmm0
  405c52:	f3 0f 10 7d d8       	movss  -0x28(%rbp),%xmm7
  405c57:	f3 0f 10 75 d4       	movss  -0x2c(%rbp),%xmm6
  405c5c:	f3 0f 10 6d d0       	movss  -0x30(%rbp),%xmm5
  405c61:	f3 0f 10 65 cc       	movss  -0x34(%rbp),%xmm4
  405c66:	f3 0f 10 5d c8       	movss  -0x38(%rbp),%xmm3
  405c6b:	f3 0f 10 55 c4       	movss  -0x3c(%rbp),%xmm2
  405c70:	f3 0f 10 4d c0       	movss  -0x40(%rbp),%xmm1
  405c75:	8b 45 bc             	mov    -0x44(%rbp),%eax
  405c78:	4c 8b 8d 40 ff ff ff 	mov    -0xc0(%rbp),%r9
  405c7f:	4c 8b 85 48 ff ff ff 	mov    -0xb8(%rbp),%r8
  405c86:	48 8b 8d 50 ff ff ff 	mov    -0xb0(%rbp),%rcx
  405c8d:	48 8b 95 58 ff ff ff 	mov    -0xa8(%rbp),%rdx
  405c94:	48 8b b5 60 ff ff ff 	mov    -0xa0(%rbp),%rsi
  405c9b:	48 8b bd 68 ff ff ff 	mov    -0x98(%rbp),%rdi
  405ca2:	48 83 ec 08          	sub    $0x8,%rsp
  405ca6:	ff b5 e0 fe ff ff    	pushq  -0x120(%rbp)
  405cac:	ff b5 e8 fe ff ff    	pushq  -0x118(%rbp)
  405cb2:	ff b5 f0 fe ff ff    	pushq  -0x110(%rbp)
  405cb8:	ff b5 f8 fe ff ff    	pushq  -0x108(%rbp)
  405cbe:	ff b5 00 ff ff ff    	pushq  -0x100(%rbp)
  405cc4:	ff b5 08 ff ff ff    	pushq  -0xf8(%rbp)
  405cca:	ff b5 10 ff ff ff    	pushq  -0xf0(%rbp)
  405cd0:	ff b5 18 ff ff ff    	pushq  -0xe8(%rbp)
  405cd6:	ff b5 20 ff ff ff    	pushq  -0xe0(%rbp)
  405cdc:	ff b5 28 ff ff ff    	pushq  -0xd8(%rbp)
  405ce2:	ff b5 30 ff ff ff    	pushq  -0xd0(%rbp)
  405ce8:	ff b5 38 ff ff ff    	pushq  -0xc8(%rbp)
  405cee:	48 8d 64 24 f8       	lea    -0x8(%rsp),%rsp
  405cf3:	f3 0f 11 04 24       	movss  %xmm0,(%rsp)
  405cf8:	89 85 94 fe ff ff    	mov    %eax,-0x16c(%rbp)
  405cfe:	f3 0f 10 85 94 fe ff 	movss  -0x16c(%rbp),%xmm0
  405d05:	ff 
  405d06:	e8 fa 1d 00 00       	callq  407b05 <_Z15QRDecompositionfffffffffRfS_S_S_S_S_S_S_S_S_S_S_S_S_S_S_S_S_>
  405d0b:	48 83 c4 70          	add    $0x70,%rsp
  405d0f:	90                   	nop
  405d10:	48 8b 45 f8          	mov    -0x8(%rbp),%rax
  405d14:	64 48 33 04 25 28 00 	xor    %fs:0x28,%rax
  405d1b:	00 00 
  405d1d:	74 05                	je     405d24 <_Z3svdfffffffffRfS_S_S_S_S_S_S_S_S_S_S_S_S_S_S_S_S_S_S_S_S_S_S_S_S_S_+0x5bc>
  405d1f:	e8 1c b4 ff ff       	callq  401140 <__stack_chk_fail@plt>
  405d24:	c9                   	leaveq 
  405d25:	c3                   	retq   

0000000000405d26 <_Z2pdfffffffffRfS_S_S_S_S_S_S_S_S_S_S_S_S_S_S_S_S_>:
  405d26:	55                   	push   %rbp
  405d27:	48 89 e5             	mov    %rsp,%rbp
  405d2a:	48 81 ec 60 01 00 00 	sub    $0x160,%rsp
  405d31:	f3 0f 11 85 5c ff ff 	movss  %xmm0,-0xa4(%rbp)
  405d38:	ff 
  405d39:	f3 0f 11 8d 58 ff ff 	movss  %xmm1,-0xa8(%rbp)
  405d40:	ff 
  405d41:	f3 0f 11 95 54 ff ff 	movss  %xmm2,-0xac(%rbp)
  405d48:	ff 
  405d49:	f3 0f 11 9d 50 ff ff 	movss  %xmm3,-0xb0(%rbp)
  405d50:	ff 
  405d51:	f3 0f 11 a5 4c ff ff 	movss  %xmm4,-0xb4(%rbp)
  405d58:	ff 
  405d59:	f3 0f 11 ad 48 ff ff 	movss  %xmm5,-0xb8(%rbp)
  405d60:	ff 
  405d61:	f3 0f 11 b5 44 ff ff 	movss  %xmm6,-0xbc(%rbp)
  405d68:	ff 
  405d69:	f3 0f 11 bd 40 ff ff 	movss  %xmm7,-0xc0(%rbp)
  405d70:	ff 
  405d71:	48 89 bd 38 ff ff ff 	mov    %rdi,-0xc8(%rbp)
  405d78:	48 89 b5 30 ff ff ff 	mov    %rsi,-0xd0(%rbp)
  405d7f:	48 89 95 28 ff ff ff 	mov    %rdx,-0xd8(%rbp)
  405d86:	48 89 8d 20 ff ff ff 	mov    %rcx,-0xe0(%rbp)
  405d8d:	4c 89 85 18 ff ff ff 	mov    %r8,-0xe8(%rbp)
  405d94:	4c 89 8d 10 ff ff ff 	mov    %r9,-0xf0(%rbp)
  405d9b:	48 8b 45 18          	mov    0x18(%rbp),%rax
  405d9f:	48 89 85 08 ff ff ff 	mov    %rax,-0xf8(%rbp)
  405da6:	48 8b 45 20          	mov    0x20(%rbp),%rax
  405daa:	48 89 85 00 ff ff ff 	mov    %rax,-0x100(%rbp)
  405db1:	48 8b 45 28          	mov    0x28(%rbp),%rax
  405db5:	48 89 85 f8 fe ff ff 	mov    %rax,-0x108(%rbp)
  405dbc:	48 8b 45 30          	mov    0x30(%rbp),%rax
  405dc0:	48 89 85 f0 fe ff ff 	mov    %rax,-0x110(%rbp)
  405dc7:	48 8b 45 38          	mov    0x38(%rbp),%rax
  405dcb:	48 89 85 e8 fe ff ff 	mov    %rax,-0x118(%rbp)
  405dd2:	48 8b 45 40          	mov    0x40(%rbp),%rax
  405dd6:	48 89 85 e0 fe ff ff 	mov    %rax,-0x120(%rbp)
  405ddd:	48 8b 45 48          	mov    0x48(%rbp),%rax
  405de1:	48 89 85 d8 fe ff ff 	mov    %rax,-0x128(%rbp)
  405de8:	48 8b 45 50          	mov    0x50(%rbp),%rax
  405dec:	48 89 85 d0 fe ff ff 	mov    %rax,-0x130(%rbp)
  405df3:	48 8b 45 58          	mov    0x58(%rbp),%rax
  405df7:	48 89 85 c8 fe ff ff 	mov    %rax,-0x138(%rbp)
  405dfe:	48 8b 45 60          	mov    0x60(%rbp),%rax
  405e02:	48 89 85 c0 fe ff ff 	mov    %rax,-0x140(%rbp)
  405e09:	48 8b 45 68          	mov    0x68(%rbp),%rax
  405e0d:	48 89 85 b8 fe ff ff 	mov    %rax,-0x148(%rbp)
  405e14:	48 8b 45 70          	mov    0x70(%rbp),%rax
  405e18:	48 89 85 b0 fe ff ff 	mov    %rax,-0x150(%rbp)
  405e1f:	64 48 8b 04 25 28 00 	mov    %fs:0x28,%rax
  405e26:	00 00 
  405e28:	48 89 45 f8          	mov    %rax,-0x8(%rbp)
  405e2c:	31 c0                	xor    %eax,%eax
  405e2e:	4c 8d 8d 7c ff ff ff 	lea    -0x84(%rbp),%r9
  405e35:	4c 8d 95 78 ff ff ff 	lea    -0x88(%rbp),%r10
  405e3c:	48 8d 8d 74 ff ff ff 	lea    -0x8c(%rbp),%rcx
  405e43:	48 8d 95 70 ff ff ff 	lea    -0x90(%rbp),%rdx
  405e4a:	48 8d b5 6c ff ff ff 	lea    -0x94(%rbp),%rsi
  405e51:	48 8d bd 68 ff ff ff 	lea    -0x98(%rbp),%rdi
  405e58:	f3 0f 10 bd 40 ff ff 	movss  -0xc0(%rbp),%xmm7
  405e5f:	ff 
  405e60:	f3 0f 10 b5 44 ff ff 	movss  -0xbc(%rbp),%xmm6
  405e67:	ff 
  405e68:	f3 0f 10 ad 48 ff ff 	movss  -0xb8(%rbp),%xmm5
  405e6f:	ff 
  405e70:	f3 0f 10 a5 4c ff ff 	movss  -0xb4(%rbp),%xmm4
  405e77:	ff 
  405e78:	f3 0f 10 9d 50 ff ff 	movss  -0xb0(%rbp),%xmm3
  405e7f:	ff 
  405e80:	f3 0f 10 95 54 ff ff 	movss  -0xac(%rbp),%xmm2
  405e87:	ff 
  405e88:	f3 0f 10 8d 58 ff ff 	movss  -0xa8(%rbp),%xmm1
  405e8f:	ff 
  405e90:	8b 85 5c ff ff ff    	mov    -0xa4(%rbp),%eax
  405e96:	4c 8d 45 d0          	lea    -0x30(%rbp),%r8
  405e9a:	41 50                	push   %r8
  405e9c:	4c 8d 45 cc          	lea    -0x34(%rbp),%r8
  405ea0:	41 50                	push   %r8
  405ea2:	4c 8d 45 c8          	lea    -0x38(%rbp),%r8
  405ea6:	41 50                	push   %r8
  405ea8:	4c 8d 45 c4          	lea    -0x3c(%rbp),%r8
  405eac:	41 50                	push   %r8
  405eae:	4c 8d 45 c0          	lea    -0x40(%rbp),%r8
  405eb2:	41 50                	push   %r8
  405eb4:	4c 8d 45 bc          	lea    -0x44(%rbp),%r8
  405eb8:	41 50                	push   %r8
  405eba:	4c 8d 45 b8          	lea    -0x48(%rbp),%r8
  405ebe:	41 50                	push   %r8
  405ec0:	4c 8d 45 b4          	lea    -0x4c(%rbp),%r8
  405ec4:	41 50                	push   %r8
  405ec6:	4c 8d 45 b0          	lea    -0x50(%rbp),%r8
  405eca:	41 50                	push   %r8
  405ecc:	4c 8d 45 ac          	lea    -0x54(%rbp),%r8
  405ed0:	41 50                	push   %r8
  405ed2:	4c 8d 45 a8          	lea    -0x58(%rbp),%r8
  405ed6:	41 50                	push   %r8
  405ed8:	4c 8d 45 a4          	lea    -0x5c(%rbp),%r8
  405edc:	41 50                	push   %r8
  405ede:	4c 8d 45 a0          	lea    -0x60(%rbp),%r8
  405ee2:	41 50                	push   %r8
  405ee4:	4c 8d 45 9c          	lea    -0x64(%rbp),%r8
  405ee8:	41 50                	push   %r8
  405eea:	4c 8d 45 98          	lea    -0x68(%rbp),%r8
  405eee:	41 50                	push   %r8
  405ef0:	4c 8d 45 94          	lea    -0x6c(%rbp),%r8
  405ef4:	41 50                	push   %r8
  405ef6:	4c 8d 45 90          	lea    -0x70(%rbp),%r8
  405efa:	41 50                	push   %r8
  405efc:	4c 8d 45 8c          	lea    -0x74(%rbp),%r8
  405f00:	41 50                	push   %r8
  405f02:	4c 8d 45 88          	lea    -0x78(%rbp),%r8
  405f06:	41 50                	push   %r8
  405f08:	4c 8d 45 84          	lea    -0x7c(%rbp),%r8
  405f0c:	41 50                	push   %r8
  405f0e:	4c 8d 45 80          	lea    -0x80(%rbp),%r8
  405f12:	41 50                	push   %r8
  405f14:	f3 0f 10 45 10       	movss  0x10(%rbp),%xmm0
  405f19:	48 8d 64 24 f8       	lea    -0x8(%rsp),%rsp
  405f1e:	f3 0f 11 04 24       	movss  %xmm0,(%rsp)
  405f23:	4d 89 d0             	mov    %r10,%r8
  405f26:	89 85 ac fe ff ff    	mov    %eax,-0x154(%rbp)
  405f2c:	f3 0f 10 85 ac fe ff 	movss  -0x154(%rbp),%xmm0
  405f33:	ff 
  405f34:	e8 2f f8 ff ff       	callq  405768 <_Z3svdfffffffffRfS_S_S_S_S_S_S_S_S_S_S_S_S_S_S_S_S_S_S_S_S_S_S_S_S_S_>
  405f39:	48 81 c4 b0 00 00 00 	add    $0xb0,%rsp
  405f40:	f3 44 0f 10 4d ac    	movss  -0x54(%rbp),%xmm9
  405f46:	f3 44 0f 10 45 a8    	movss  -0x58(%rbp),%xmm8
  405f4c:	f3 0f 10 7d a4       	movss  -0x5c(%rbp),%xmm7
  405f51:	f3 0f 10 75 a0       	movss  -0x60(%rbp),%xmm6
  405f56:	f3 0f 10 6d 9c       	movss  -0x64(%rbp),%xmm5
  405f5b:	f3 0f 10 65 98       	movss  -0x68(%rbp),%xmm4
  405f60:	f3 0f 10 5d 94       	movss  -0x6c(%rbp),%xmm3
  405f65:	f3 0f 10 55 90       	movss  -0x70(%rbp),%xmm2
  405f6a:	f3 0f 10 4d 8c       	movss  -0x74(%rbp),%xmm1
  405f6f:	f3 0f 10 45 d0       	movss  -0x30(%rbp),%xmm0
  405f74:	f3 44 0f 10 55 cc    	movss  -0x34(%rbp),%xmm10
  405f7a:	f3 44 0f 11 95 ac fe 	movss  %xmm10,-0x154(%rbp)
  405f81:	ff ff 
  405f83:	f3 44 0f 10 7d c8    	movss  -0x38(%rbp),%xmm15
  405f89:	f3 44 0f 10 75 c4    	movss  -0x3c(%rbp),%xmm14
  405f8f:	f3 44 0f 10 6d c0    	movss  -0x40(%rbp),%xmm13
  405f95:	f3 44 0f 10 65 bc    	movss  -0x44(%rbp),%xmm12
  405f9b:	f3 44 0f 10 5d b8    	movss  -0x48(%rbp),%xmm11
  405fa1:	f3 44 0f 10 55 b4    	movss  -0x4c(%rbp),%xmm10
  405fa7:	8b 45 b0             	mov    -0x50(%rbp),%eax
  405faa:	4c 8d 4d e8          	lea    -0x18(%rbp),%r9
  405fae:	4c 8d 55 e4          	lea    -0x1c(%rbp),%r10
  405fb2:	48 8d 4d e0          	lea    -0x20(%rbp),%rcx
  405fb6:	48 8d 55 dc          	lea    -0x24(%rbp),%rdx
  405fba:	48 8d 75 d8          	lea    -0x28(%rbp),%rsi
  405fbe:	48 8d 7d d4          	lea    -0x2c(%rbp),%rdi
  405fc2:	48 83 ec 08          	sub    $0x8,%rsp
  405fc6:	4c 8d 45 f4          	lea    -0xc(%rbp),%r8
  405fca:	41 50                	push   %r8
  405fcc:	4c 8d 45 f0          	lea    -0x10(%rbp),%r8
  405fd0:	41 50                	push   %r8
  405fd2:	4c 8d 45 ec          	lea    -0x14(%rbp),%r8
  405fd6:	41 50                	push   %r8
  405fd8:	48 8d 64 24 f8       	lea    -0x8(%rsp),%rsp
  405fdd:	f3 44 0f 11 0c 24    	movss  %xmm9,(%rsp)
  405fe3:	48 8d 64 24 f8       	lea    -0x8(%rsp),%rsp
  405fe8:	f3 44 0f 11 04 24    	movss  %xmm8,(%rsp)
  405fee:	48 8d 64 24 f8       	lea    -0x8(%rsp),%rsp
  405ff3:	f3 0f 11 3c 24       	movss  %xmm7,(%rsp)
  405ff8:	48 8d 64 24 f8       	lea    -0x8(%rsp),%rsp
  405ffd:	f3 0f 11 34 24       	movss  %xmm6,(%rsp)
  406002:	48 8d 64 24 f8       	lea    -0x8(%rsp),%rsp
  406007:	f3 0f 11 2c 24       	movss  %xmm5,(%rsp)
  40600c:	48 8d 64 24 f8       	lea    -0x8(%rsp),%rsp
  406011:	f3 0f 11 24 24       	movss  %xmm4,(%rsp)
  406016:	48 8d 64 24 f8       	lea    -0x8(%rsp),%rsp
  40601b:	f3 0f 11 1c 24       	movss  %xmm3,(%rsp)
  406020:	48 8d 64 24 f8       	lea    -0x8(%rsp),%rsp
  406025:	f3 0f 11 14 24       	movss  %xmm2,(%rsp)
  40602a:	48 8d 64 24 f8       	lea    -0x8(%rsp),%rsp
  40602f:	f3 0f 11 0c 24       	movss  %xmm1,(%rsp)
  406034:	48 8d 64 24 f8       	lea    -0x8(%rsp),%rsp
  406039:	f3 0f 11 04 24       	movss  %xmm0,(%rsp)
  40603e:	4d 89 d0             	mov    %r10,%r8
  406041:	f3 0f 10 bd ac fe ff 	movss  -0x154(%rbp),%xmm7
  406048:	ff 
  406049:	41 0f 28 f7          	movaps %xmm15,%xmm6
  40604d:	41 0f 28 ee          	movaps %xmm14,%xmm5
  406051:	41 0f 28 e5          	movaps %xmm13,%xmm4
  406055:	41 0f 28 dc          	movaps %xmm12,%xmm3
  406059:	41 0f 28 d3          	movaps %xmm11,%xmm2
  40605d:	41 0f 28 ca          	movaps %xmm10,%xmm1
  406061:	89 85 ac fe ff ff    	mov    %eax,-0x154(%rbp)
  406067:	f3 0f 10 85 ac fe ff 	movss  -0x154(%rbp),%xmm0
  40606e:	ff 
  40606f:	e8 38 09 00 00       	callq  4069ac <_Z6multABffffffffffffffffffRfS_S_S_S_S_S_S_S_>
  406074:	48 83 c4 70          	add    $0x70,%rsp
  406078:	f3 44 0f 10 4d d0    	movss  -0x30(%rbp),%xmm9
  40607e:	f3 44 0f 10 45 c4    	movss  -0x3c(%rbp),%xmm8
  406084:	f3 0f 10 7d b8       	movss  -0x48(%rbp),%xmm7
  406089:	f3 0f 10 75 cc       	movss  -0x34(%rbp),%xmm6
  40608e:	f3 0f 10 6d c0       	movss  -0x40(%rbp),%xmm5
  406093:	f3 0f 10 65 b4       	movss  -0x4c(%rbp),%xmm4
  406098:	f3 0f 10 5d c8       	movss  -0x38(%rbp),%xmm3
  40609d:	f3 0f 10 55 bc       	movss  -0x44(%rbp),%xmm2
  4060a2:	f3 0f 10 4d b0       	movss  -0x50(%rbp),%xmm1
  4060a7:	f3 0f 10 45 f4       	movss  -0xc(%rbp),%xmm0
  4060ac:	f3 44 0f 10 5d f0    	movss  -0x10(%rbp),%xmm11
  4060b2:	f3 44 0f 11 9d ac fe 	movss  %xmm11,-0x154(%rbp)
  4060b9:	ff ff 
  4060bb:	f3 44 0f 10 7d ec    	movss  -0x14(%rbp),%xmm15
  4060c1:	f3 44 0f 10 75 e8    	movss  -0x18(%rbp),%xmm14
  4060c7:	f3 44 0f 10 6d e4    	movss  -0x1c(%rbp),%xmm13
  4060cd:	f3 44 0f 10 65 e0    	movss  -0x20(%rbp),%xmm12
  4060d3:	f3 44 0f 10 5d dc    	movss  -0x24(%rbp),%xmm11
  4060d9:	f3 44 0f 10 55 d8    	movss  -0x28(%rbp),%xmm10
  4060df:	8b 45 d4             	mov    -0x2c(%rbp),%eax
  4060e2:	4c 8b 8d c8 fe ff ff 	mov    -0x138(%rbp),%r9
  4060e9:	4c 8b 85 d0 fe ff ff 	mov    -0x130(%rbp),%r8
  4060f0:	48 8b 8d d8 fe ff ff 	mov    -0x128(%rbp),%rcx
  4060f7:	48 8b 95 e0 fe ff ff 	mov    -0x120(%rbp),%rdx
  4060fe:	48 8b b5 e8 fe ff ff 	mov    -0x118(%rbp),%rsi
  406105:	48 8b bd f0 fe ff ff 	mov    -0x110(%rbp),%rdi
  40610c:	48 83 ec 08          	sub    $0x8,%rsp
  406110:	ff b5 b0 fe ff ff    	pushq  -0x150(%rbp)
  406116:	ff b5 b8 fe ff ff    	pushq  -0x148(%rbp)
  40611c:	ff b5 c0 fe ff ff    	pushq  -0x140(%rbp)
  406122:	48 8d 64 24 f8       	lea    -0x8(%rsp),%rsp
  406127:	f3 44 0f 11 0c 24    	movss  %xmm9,(%rsp)
  40612d:	48 8d 64 24 f8       	lea    -0x8(%rsp),%rsp
  406132:	f3 44 0f 11 04 24    	movss  %xmm8,(%rsp)
  406138:	48 8d 64 24 f8       	lea    -0x8(%rsp),%rsp
  40613d:	f3 0f 11 3c 24       	movss  %xmm7,(%rsp)
  406142:	48 8d 64 24 f8       	lea    -0x8(%rsp),%rsp
  406147:	f3 0f 11 34 24       	movss  %xmm6,(%rsp)
  40614c:	48 8d 64 24 f8       	lea    -0x8(%rsp),%rsp
  406151:	f3 0f 11 2c 24       	movss  %xmm5,(%rsp)
  406156:	48 8d 64 24 f8       	lea    -0x8(%rsp),%rsp
  40615b:	f3 0f 11 24 24       	movss  %xmm4,(%rsp)
  406160:	48 8d 64 24 f8       	lea    -0x8(%rsp),%rsp
  406165:	f3 0f 11 1c 24       	movss  %xmm3,(%rsp)
  40616a:	48 8d 64 24 f8       	lea    -0x8(%rsp),%rsp
  40616f:	f3 0f 11 14 24       	movss  %xmm2,(%rsp)
  406174:	48 8d 64 24 f8       	lea    -0x8(%rsp),%rsp
  406179:	f3 0f 11 0c 24       	movss  %xmm1,(%rsp)
  40617e:	48 8d 64 24 f8       	lea    -0x8(%rsp),%rsp
  406183:	f3 0f 11 04 24       	movss  %xmm0,(%rsp)
  406188:	f3 0f 10 bd ac fe ff 	movss  -0x154(%rbp),%xmm7
  40618f:	ff 
  406190:	41 0f 28 f7          	movaps %xmm15,%xmm6
  406194:	41 0f 28 ee          	movaps %xmm14,%xmm5
  406198:	41 0f 28 e5          	movaps %xmm13,%xmm4
  40619c:	41 0f 28 dc          	movaps %xmm12,%xmm3
  4061a0:	41 0f 28 d3          	movaps %xmm11,%xmm2
  4061a4:	41 0f 28 ca          	movaps %xmm10,%xmm1
  4061a8:	89 85 ac fe ff ff    	mov    %eax,-0x154(%rbp)
  4061ae:	f3 0f 10 85 ac fe ff 	movss  -0x154(%rbp),%xmm0
  4061b5:	ff 
  4061b6:	e8 f1 07 00 00       	callq  4069ac <_Z6multABffffffffffffffffffRfS_S_S_S_S_S_S_S_>
  4061bb:	48 83 c4 70          	add    $0x70,%rsp
  4061bf:	f3 44 0f 10 4d d0    	movss  -0x30(%rbp),%xmm9
  4061c5:	f3 44 0f 10 45 c4    	movss  -0x3c(%rbp),%xmm8
  4061cb:	f3 0f 10 7d b8       	movss  -0x48(%rbp),%xmm7
  4061d0:	f3 0f 10 75 cc       	movss  -0x34(%rbp),%xmm6
  4061d5:	f3 0f 10 6d c0       	movss  -0x40(%rbp),%xmm5
  4061da:	f3 0f 10 65 b4       	movss  -0x4c(%rbp),%xmm4
  4061df:	f3 0f 10 5d c8       	movss  -0x38(%rbp),%xmm3
  4061e4:	f3 0f 10 55 bc       	movss  -0x44(%rbp),%xmm2
  4061e9:	f3 0f 10 4d b0       	movss  -0x50(%rbp),%xmm1
  4061ee:	f3 0f 10 45 88       	movss  -0x78(%rbp),%xmm0
  4061f3:	f3 44 0f 10 65 84    	movss  -0x7c(%rbp),%xmm12
  4061f9:	f3 44 0f 11 a5 ac fe 	movss  %xmm12,-0x154(%rbp)
  406200:	ff ff 
  406202:	f3 44 0f 10 7d 80    	movss  -0x80(%rbp),%xmm15
  406208:	f3 44 0f 10 b5 7c ff 	movss  -0x84(%rbp),%xmm14
  40620f:	ff ff 
  406211:	f3 44 0f 10 ad 78 ff 	movss  -0x88(%rbp),%xmm13
  406218:	ff ff 
  40621a:	f3 44 0f 10 a5 74 ff 	movss  -0x8c(%rbp),%xmm12
  406221:	ff ff 
  406223:	f3 44 0f 10 9d 70 ff 	movss  -0x90(%rbp),%xmm11
  40622a:	ff ff 
  40622c:	f3 44 0f 10 95 6c ff 	movss  -0x94(%rbp),%xmm10
  406233:	ff ff 
  406235:	8b 85 68 ff ff ff    	mov    -0x98(%rbp),%eax
  40623b:	4c 8b 8d 10 ff ff ff 	mov    -0xf0(%rbp),%r9
  406242:	4c 8b 85 18 ff ff ff 	mov    -0xe8(%rbp),%r8
  406249:	48 8b 8d 20 ff ff ff 	mov    -0xe0(%rbp),%rcx
  406250:	48 8b 95 28 ff ff ff 	mov    -0xd8(%rbp),%rdx
  406257:	48 8b b5 30 ff ff ff 	mov    -0xd0(%rbp),%rsi
  40625e:	48 8b bd 38 ff ff ff 	mov    -0xc8(%rbp),%rdi
  406265:	48 83 ec 08          	sub    $0x8,%rsp
  406269:	ff b5 f8 fe ff ff    	pushq  -0x108(%rbp)
  40626f:	ff b5 00 ff ff ff    	pushq  -0x100(%rbp)
  406275:	ff b5 08 ff ff ff    	pushq  -0xf8(%rbp)
  40627b:	48 8d 64 24 f8       	lea    -0x8(%rsp),%rsp
  406280:	f3 44 0f 11 0c 24    	movss  %xmm9,(%rsp)
  406286:	48 8d 64 24 f8       	lea    -0x8(%rsp),%rsp
  40628b:	f3 44 0f 11 04 24    	movss  %xmm8,(%rsp)
  406291:	48 8d 64 24 f8       	lea    -0x8(%rsp),%rsp
  406296:	f3 0f 11 3c 24       	movss  %xmm7,(%rsp)
  40629b:	48 8d 64 24 f8       	lea    -0x8(%rsp),%rsp
  4062a0:	f3 0f 11 34 24       	movss  %xmm6,(%rsp)
  4062a5:	48 8d 64 24 f8       	lea    -0x8(%rsp),%rsp
  4062aa:	f3 0f 11 2c 24       	movss  %xmm5,(%rsp)
  4062af:	48 8d 64 24 f8       	lea    -0x8(%rsp),%rsp
  4062b4:	f3 0f 11 24 24       	movss  %xmm4,(%rsp)
  4062b9:	48 8d 64 24 f8       	lea    -0x8(%rsp),%rsp
  4062be:	f3 0f 11 1c 24       	movss  %xmm3,(%rsp)
  4062c3:	48 8d 64 24 f8       	lea    -0x8(%rsp),%rsp
  4062c8:	f3 0f 11 14 24       	movss  %xmm2,(%rsp)
  4062cd:	48 8d 64 24 f8       	lea    -0x8(%rsp),%rsp
  4062d2:	f3 0f 11 0c 24       	movss  %xmm1,(%rsp)
  4062d7:	48 8d 64 24 f8       	lea    -0x8(%rsp),%rsp
  4062dc:	f3 0f 11 04 24       	movss  %xmm0,(%rsp)
  4062e1:	f3 0f 10 bd ac fe ff 	movss  -0x154(%rbp),%xmm7
  4062e8:	ff 
  4062e9:	41 0f 28 f7          	movaps %xmm15,%xmm6
  4062ed:	41 0f 28 ee          	movaps %xmm14,%xmm5
  4062f1:	41 0f 28 e5          	movaps %xmm13,%xmm4
  4062f5:	41 0f 28 dc          	movaps %xmm12,%xmm3
  4062f9:	41 0f 28 d3          	movaps %xmm11,%xmm2
  4062fd:	41 0f 28 ca          	movaps %xmm10,%xmm1
  406301:	89 85 ac fe ff ff    	mov    %eax,-0x154(%rbp)
  406307:	f3 0f 10 85 ac fe ff 	movss  -0x154(%rbp),%xmm0
  40630e:	ff 
  40630f:	e8 98 06 00 00       	callq  4069ac <_Z6multABffffffffffffffffffRfS_S_S_S_S_S_S_S_>
  406314:	48 83 c4 70          	add    $0x70,%rsp
  406318:	90                   	nop
  406319:	48 8b 45 f8          	mov    -0x8(%rbp),%rax
  40631d:	64 48 33 04 25 28 00 	xor    %fs:0x28,%rax
  406324:	00 00 
  406326:	74 05                	je     40632d <_Z2pdfffffffffRfS_S_S_S_S_S_S_S_S_S_S_S_S_S_S_S_S_+0x607>
  406328:	e8 13 ae ff ff       	callq  401140 <__stack_chk_fail@plt>
  40632d:	c9                   	leaveq 
  40632e:	c3                   	retq   

000000000040632f <runSVD>:
  40632f:	55                   	push   %rbp
  406330:	48 89 e5             	mov    %rsp,%rbp
  406333:	41 57                	push   %r15
  406335:	41 56                	push   %r14
  406337:	41 55                	push   %r13
  406339:	41 54                	push   %r12
  40633b:	53                   	push   %rbx
  40633c:	48 81 ec 88 00 00 00 	sub    $0x88,%rsp
  406343:	48 89 7d 98          	mov    %rdi,-0x68(%rbp)
  406347:	48 89 75 90          	mov    %rsi,-0x70(%rbp)
  40634b:	48 89 55 88          	mov    %rdx,-0x78(%rbp)
  40634f:	64 48 8b 04 25 28 00 	mov    %fs:0x28,%rax
  406356:	00 00 
  406358:	48 89 45 c8          	mov    %rax,-0x38(%rbp)
  40635c:	31 c0                	xor    %eax,%eax
  40635e:	48 8b 45 88          	mov    -0x78(%rbp),%rax
  406362:	48 83 c0 18          	add    $0x18,%rax
  406366:	48 8d 48 08          	lea    0x8(%rax),%rcx
  40636a:	48 8b 45 88          	mov    -0x78(%rbp),%rax
  40636e:	48 83 c0 18          	add    $0x18,%rax
  406372:	4c 8d 40 04          	lea    0x4(%rax),%r8
  406376:	48 8b 45 88          	mov    -0x78(%rbp),%rax
  40637a:	48 83 c0 18          	add    $0x18,%rax
  40637e:	48 89 45 80          	mov    %rax,-0x80(%rbp)
  406382:	48 8b 45 88          	mov    -0x78(%rbp),%rax
  406386:	48 83 c0 0c          	add    $0xc,%rax
  40638a:	4c 8d 48 08          	lea    0x8(%rax),%r9
  40638e:	48 8b 45 88          	mov    -0x78(%rbp),%rax
  406392:	48 83 c0 0c          	add    $0xc,%rax
  406396:	4c 8d 78 04          	lea    0x4(%rax),%r15
  40639a:	48 8b 45 88          	mov    -0x78(%rbp),%rax
  40639e:	48 83 c0 0c          	add    $0xc,%rax
  4063a2:	48 89 85 78 ff ff ff 	mov    %rax,-0x88(%rbp)
  4063a9:	48 8b 45 88          	mov    -0x78(%rbp),%rax
  4063ad:	4c 8d 70 08          	lea    0x8(%rax),%r14
  4063b1:	48 8b 45 88          	mov    -0x78(%rbp),%rax
  4063b5:	4c 8d 68 04          	lea    0x4(%rax),%r13
  4063b9:	48 8b 55 88          	mov    -0x78(%rbp),%rdx
  4063bd:	48 8b 45 90          	mov    -0x70(%rbp),%rax
  4063c1:	48 83 c0 18          	add    $0x18,%rax
  4063c5:	4c 8d 60 08          	lea    0x8(%rax),%r12
  4063c9:	48 8b 45 90          	mov    -0x70(%rbp),%rax
  4063cd:	48 83 c0 18          	add    $0x18,%rax
  4063d1:	48 8d 58 04          	lea    0x4(%rax),%rbx
  4063d5:	48 8b 45 90          	mov    -0x70(%rbp),%rax
  4063d9:	48 83 c0 18          	add    $0x18,%rax
  4063dd:	48 89 85 70 ff ff ff 	mov    %rax,-0x90(%rbp)
  4063e4:	48 8b 45 90          	mov    -0x70(%rbp),%rax
  4063e8:	48 83 c0 0c          	add    $0xc,%rax
  4063ec:	48 8d 70 08          	lea    0x8(%rax),%rsi
  4063f0:	48 89 b5 68 ff ff ff 	mov    %rsi,-0x98(%rbp)
  4063f7:	48 8b 45 90          	mov    -0x70(%rbp),%rax
  4063fb:	48 83 c0 0c          	add    $0xc,%rax
  4063ff:	48 8d 78 04          	lea    0x4(%rax),%rdi
  406403:	48 89 bd 60 ff ff ff 	mov    %rdi,-0xa0(%rbp)
  40640a:	48 8b 45 90          	mov    -0x70(%rbp),%rax
  40640e:	48 83 c0 0c          	add    $0xc,%rax
  406412:	48 89 85 58 ff ff ff 	mov    %rax,-0xa8(%rbp)
  406419:	48 8b 45 90          	mov    -0x70(%rbp),%rax
  40641d:	4c 8d 58 08          	lea    0x8(%rax),%r11
  406421:	48 8b 45 90          	mov    -0x70(%rbp),%rax
  406425:	48 8d 70 04          	lea    0x4(%rax),%rsi
  406429:	48 8b 7d 90          	mov    -0x70(%rbp),%rdi
  40642d:	48 8b 45 98          	mov    -0x68(%rbp),%rax
  406431:	48 83 c0 18          	add    $0x18,%rax
  406435:	f3 0f 10 40 08       	movss  0x8(%rax),%xmm0
  40643a:	48 8b 45 98          	mov    -0x68(%rbp),%rax
  40643e:	48 83 c0 18          	add    $0x18,%rax
  406442:	f3 0f 10 78 04       	movss  0x4(%rax),%xmm7
  406447:	48 8b 45 98          	mov    -0x68(%rbp),%rax
  40644b:	48 83 c0 18          	add    $0x18,%rax
  40644f:	f3 0f 10 30          	movss  (%rax),%xmm6
  406453:	48 8b 45 98          	mov    -0x68(%rbp),%rax
  406457:	48 83 c0 0c          	add    $0xc,%rax
  40645b:	f3 0f 10 68 08       	movss  0x8(%rax),%xmm5
  406460:	48 8b 45 98          	mov    -0x68(%rbp),%rax
  406464:	48 83 c0 0c          	add    $0xc,%rax
  406468:	f3 0f 10 60 04       	movss  0x4(%rax),%xmm4
  40646d:	48 8b 45 98          	mov    -0x68(%rbp),%rax
  406471:	48 83 c0 0c          	add    $0xc,%rax
  406475:	f3 0f 10 18          	movss  (%rax),%xmm3
  406479:	48 8b 45 98          	mov    -0x68(%rbp),%rax
  40647d:	f3 0f 10 50 08       	movss  0x8(%rax),%xmm2
  406482:	48 8b 45 98          	mov    -0x68(%rbp),%rax
  406486:	f3 0f 10 48 04       	movss  0x4(%rax),%xmm1
  40648b:	48 8b 45 98          	mov    -0x68(%rbp),%rax
  40648f:	44 8b 10             	mov    (%rax),%r10d
  406492:	51                   	push   %rcx
  406493:	41 50                	push   %r8
  406495:	ff 75 80             	pushq  -0x80(%rbp)
  406498:	41 51                	push   %r9
  40649a:	41 57                	push   %r15
  40649c:	ff b5 78 ff ff ff    	pushq  -0x88(%rbp)
  4064a2:	41 56                	push   %r14
  4064a4:	41 55                	push   %r13
  4064a6:	52                   	push   %rdx
  4064a7:	48 8d 45 a0          	lea    -0x60(%rbp),%rax
  4064ab:	48 83 c0 20          	add    $0x20,%rax
  4064af:	50                   	push   %rax
  4064b0:	48 8d 45 a0          	lea    -0x60(%rbp),%rax
  4064b4:	48 83 c0 1c          	add    $0x1c,%rax
  4064b8:	50                   	push   %rax
  4064b9:	48 8d 45 a0          	lea    -0x60(%rbp),%rax
  4064bd:	48 83 c0 18          	add    $0x18,%rax
  4064c1:	50                   	push   %rax
  4064c2:	48 8d 45 a0          	lea    -0x60(%rbp),%rax
  4064c6:	48 83 c0 14          	add    $0x14,%rax
  4064ca:	50                   	push   %rax
  4064cb:	48 8d 45 a0          	lea    -0x60(%rbp),%rax
  4064cf:	48 83 c0 10          	add    $0x10,%rax
  4064d3:	50                   	push   %rax
  4064d4:	48 8d 45 a0          	lea    -0x60(%rbp),%rax
  4064d8:	48 83 c0 0c          	add    $0xc,%rax
  4064dc:	50                   	push   %rax
  4064dd:	48 8d 45 a0          	lea    -0x60(%rbp),%rax
  4064e1:	48 83 c0 08          	add    $0x8,%rax
  4064e5:	50                   	push   %rax
  4064e6:	48 8d 45 a0          	lea    -0x60(%rbp),%rax
  4064ea:	48 83 c0 04          	add    $0x4,%rax
  4064ee:	50                   	push   %rax
  4064ef:	48 8d 45 a0          	lea    -0x60(%rbp),%rax
  4064f3:	50                   	push   %rax
  4064f4:	41 54                	push   %r12
  4064f6:	53                   	push   %rbx
  4064f7:	ff b5 70 ff ff ff    	pushq  -0x90(%rbp)
  4064fd:	48 8d 64 24 f8       	lea    -0x8(%rsp),%rsp
  406502:	f3 0f 11 04 24       	movss  %xmm0,(%rsp)
  406507:	4c 8b 8d 68 ff ff ff 	mov    -0x98(%rbp),%r9
  40650e:	4c 8b 85 60 ff ff ff 	mov    -0xa0(%rbp),%r8
  406515:	48 8b 8d 58 ff ff ff 	mov    -0xa8(%rbp),%rcx
  40651c:	4c 89 da             	mov    %r11,%rdx
  40651f:	44 89 55 80          	mov    %r10d,-0x80(%rbp)
  406523:	f3 0f 10 45 80       	movss  -0x80(%rbp),%xmm0
  406528:	e8 3b f2 ff ff       	callq  405768 <_Z3svdfffffffffRfS_S_S_S_S_S_S_S_S_S_S_S_S_S_S_S_S_S_S_S_S_S_S_S_S_S_>
  40652d:	48 81 c4 b0 00 00 00 	add    $0xb0,%rsp
  406534:	90                   	nop
  406535:	48 8b 45 c8          	mov    -0x38(%rbp),%rax
  406539:	64 48 33 04 25 28 00 	xor    %fs:0x28,%rax
  406540:	00 00 
  406542:	74 05                	je     406549 <runSVD+0x21a>
  406544:	e8 f7 ab ff ff       	callq  401140 <__stack_chk_fail@plt>
  406549:	48 8d 65 d8          	lea    -0x28(%rbp),%rsp
  40654d:	5b                   	pop    %rbx
  40654e:	41 5c                	pop    %r12
  406550:	41 5d                	pop    %r13
  406552:	41 5e                	pop    %r14
  406554:	41 5f                	pop    %r15
  406556:	5d                   	pop    %rbp
  406557:	c3                   	retq   

0000000000406558 <matMul3D>:
  406558:	55                   	push   %rbp
  406559:	48 89 e5             	mov    %rsp,%rbp
  40655c:	53                   	push   %rbx
  40655d:	48 83 ec 28          	sub    $0x28,%rsp
  406561:	48 89 7d e8          	mov    %rdi,-0x18(%rbp)
  406565:	48 89 75 e0          	mov    %rsi,-0x20(%rbp)
  406569:	48 89 55 d8          	mov    %rdx,-0x28(%rbp)
  40656d:	48 8b 45 d8          	mov    -0x28(%rbp),%rax
  406571:	48 83 c0 18          	add    $0x18,%rax
  406575:	4c 8d 40 08          	lea    0x8(%rax),%r8
  406579:	48 8b 45 d8          	mov    -0x28(%rbp),%rax
  40657d:	48 83 c0 18          	add    $0x18,%rax
  406581:	48 8d 48 04          	lea    0x4(%rax),%rcx
  406585:	48 8b 45 d8          	mov    -0x28(%rbp),%rax
  406589:	48 83 c0 18          	add    $0x18,%rax
  40658d:	48 89 c3             	mov    %rax,%rbx
  406590:	48 8b 45 d8          	mov    -0x28(%rbp),%rax
  406594:	48 83 c0 0c          	add    $0xc,%rax
  406598:	4c 8d 48 08          	lea    0x8(%rax),%r9
  40659c:	48 8b 45 d8          	mov    -0x28(%rbp),%rax
  4065a0:	48 83 c0 0c          	add    $0xc,%rax
  4065a4:	4c 8d 50 04          	lea    0x4(%rax),%r10
  4065a8:	48 8b 45 d8          	mov    -0x28(%rbp),%rax
  4065ac:	48 83 c0 0c          	add    $0xc,%rax
  4065b0:	49 89 c3             	mov    %rax,%r11
  4065b3:	48 8b 45 d8          	mov    -0x28(%rbp),%rax
  4065b7:	48 8d 50 08          	lea    0x8(%rax),%rdx
  4065bb:	48 8b 45 d8          	mov    -0x28(%rbp),%rax
  4065bf:	48 8d 70 04          	lea    0x4(%rax),%rsi
  4065c3:	48 8b 7d d8          	mov    -0x28(%rbp),%rdi
  4065c7:	48 8b 45 e0          	mov    -0x20(%rbp),%rax
  4065cb:	48 83 c0 18          	add    $0x18,%rax
  4065cf:	f3 44 0f 10 48 08    	movss  0x8(%rax),%xmm9
  4065d5:	48 8b 45 e0          	mov    -0x20(%rbp),%rax
  4065d9:	48 83 c0 18          	add    $0x18,%rax
  4065dd:	f3 44 0f 10 40 04    	movss  0x4(%rax),%xmm8
  4065e3:	48 8b 45 e0          	mov    -0x20(%rbp),%rax
  4065e7:	48 83 c0 18          	add    $0x18,%rax
  4065eb:	f3 0f 10 38          	movss  (%rax),%xmm7
  4065ef:	48 8b 45 e0          	mov    -0x20(%rbp),%rax
  4065f3:	48 83 c0 0c          	add    $0xc,%rax
  4065f7:	f3 0f 10 70 08       	movss  0x8(%rax),%xmm6
  4065fc:	48 8b 45 e0          	mov    -0x20(%rbp),%rax
  406600:	48 83 c0 0c          	add    $0xc,%rax
  406604:	f3 0f 10 68 04       	movss  0x4(%rax),%xmm5
  406609:	48 8b 45 e0          	mov    -0x20(%rbp),%rax
  40660d:	48 83 c0 0c          	add    $0xc,%rax
  406611:	f3 0f 10 20          	movss  (%rax),%xmm4
  406615:	48 8b 45 e0          	mov    -0x20(%rbp),%rax
  406619:	f3 0f 10 58 08       	movss  0x8(%rax),%xmm3
  40661e:	48 8b 45 e0          	mov    -0x20(%rbp),%rax
  406622:	f3 0f 10 50 04       	movss  0x4(%rax),%xmm2
  406627:	48 8b 45 e0          	mov    -0x20(%rbp),%rax
  40662b:	f3 0f 10 08          	movss  (%rax),%xmm1
  40662f:	48 8b 45 e8          	mov    -0x18(%rbp),%rax
  406633:	48 83 c0 18          	add    $0x18,%rax
  406637:	f3 0f 10 40 08       	movss  0x8(%rax),%xmm0
  40663c:	48 8b 45 e8          	mov    -0x18(%rbp),%rax
  406640:	48 83 c0 18          	add    $0x18,%rax
  406644:	f3 44 0f 10 50 04    	movss  0x4(%rax),%xmm10
  40664a:	f3 44 0f 11 55 d4    	movss  %xmm10,-0x2c(%rbp)
  406650:	48 8b 45 e8          	mov    -0x18(%rbp),%rax
  406654:	48 83 c0 18          	add    $0x18,%rax
  406658:	f3 44 0f 10 38       	movss  (%rax),%xmm15
  40665d:	48 8b 45 e8          	mov    -0x18(%rbp),%rax
  406661:	48 83 c0 0c          	add    $0xc,%rax
  406665:	f3 44 0f 10 70 08    	movss  0x8(%rax),%xmm14
  40666b:	48 8b 45 e8          	mov    -0x18(%rbp),%rax
  40666f:	48 83 c0 0c          	add    $0xc,%rax
  406673:	f3 44 0f 10 68 04    	movss  0x4(%rax),%xmm13
  406679:	48 8b 45 e8          	mov    -0x18(%rbp),%rax
  40667d:	48 83 c0 0c          	add    $0xc,%rax
  406681:	f3 44 0f 10 20       	movss  (%rax),%xmm12
  406686:	48 8b 45 e8          	mov    -0x18(%rbp),%rax
  40668a:	f3 44 0f 10 58 08    	movss  0x8(%rax),%xmm11
  406690:	48 8b 45 e8          	mov    -0x18(%rbp),%rax
  406694:	f3 44 0f 10 50 04    	movss  0x4(%rax),%xmm10
  40669a:	48 8b 45 e8          	mov    -0x18(%rbp),%rax
  40669e:	8b 00                	mov    (%rax),%eax
  4066a0:	48 83 ec 08          	sub    $0x8,%rsp
  4066a4:	41 50                	push   %r8
  4066a6:	51                   	push   %rcx
  4066a7:	53                   	push   %rbx
  4066a8:	48 8d 64 24 f8       	lea    -0x8(%rsp),%rsp
  4066ad:	f3 44 0f 11 0c 24    	movss  %xmm9,(%rsp)
  4066b3:	48 8d 64 24 f8       	lea    -0x8(%rsp),%rsp
  4066b8:	f3 44 0f 11 04 24    	movss  %xmm8,(%rsp)
  4066be:	48 8d 64 24 f8       	lea    -0x8(%rsp),%rsp
  4066c3:	f3 0f 11 3c 24       	movss  %xmm7,(%rsp)
  4066c8:	48 8d 64 24 f8       	lea    -0x8(%rsp),%rsp
  4066cd:	f3 0f 11 34 24       	movss  %xmm6,(%rsp)
  4066d2:	48 8d 64 24 f8       	lea    -0x8(%rsp),%rsp
  4066d7:	f3 0f 11 2c 24       	movss  %xmm5,(%rsp)
  4066dc:	48 8d 64 24 f8       	lea    -0x8(%rsp),%rsp
  4066e1:	f3 0f 11 24 24       	movss  %xmm4,(%rsp)
  4066e6:	48 8d 64 24 f8       	lea    -0x8(%rsp),%rsp
  4066eb:	f3 0f 11 1c 24       	movss  %xmm3,(%rsp)
  4066f0:	48 8d 64 24 f8       	lea    -0x8(%rsp),%rsp
  4066f5:	f3 0f 11 14 24       	movss  %xmm2,(%rsp)
  4066fa:	48 8d 64 24 f8       	lea    -0x8(%rsp),%rsp
  4066ff:	f3 0f 11 0c 24       	movss  %xmm1,(%rsp)
  406704:	48 8d 64 24 f8       	lea    -0x8(%rsp),%rsp
  406709:	f3 0f 11 04 24       	movss  %xmm0,(%rsp)
  40670e:	4d 89 d0             	mov    %r10,%r8
  406711:	4c 89 d9             	mov    %r11,%rcx
  406714:	f3 0f 10 7d d4       	movss  -0x2c(%rbp),%xmm7
  406719:	41 0f 28 f7          	movaps %xmm15,%xmm6
  40671d:	41 0f 28 ee          	movaps %xmm14,%xmm5
  406721:	41 0f 28 e5          	movaps %xmm13,%xmm4
  406725:	41 0f 28 dc          	movaps %xmm12,%xmm3
  406729:	41 0f 28 d3          	movaps %xmm11,%xmm2
  40672d:	41 0f 28 ca          	movaps %xmm10,%xmm1
  406731:	89 45 d4             	mov    %eax,-0x2c(%rbp)
  406734:	f3 0f 10 45 d4       	movss  -0x2c(%rbp),%xmm0
  406739:	e8 6e 02 00 00       	callq  4069ac <_Z6multABffffffffffffffffffRfS_S_S_S_S_S_S_S_>
  40673e:	48 83 c4 70          	add    $0x70,%rsp
  406742:	90                   	nop
  406743:	48 8b 5d f8          	mov    -0x8(%rbp),%rbx
  406747:	c9                   	leaveq 
  406748:	c3                   	retq   

0000000000406749 <_Z5rsqrtf>:
  406749:	55                   	push   %rbp
  40674a:	48 89 e5             	mov    %rsp,%rbp
  40674d:	48 83 ec 20          	sub    $0x20,%rsp
  406751:	f3 0f 11 45 ec       	movss  %xmm0,-0x14(%rbp)
  406756:	64 48 8b 04 25 28 00 	mov    %fs:0x28,%rax
  40675d:	00 00 
  40675f:	48 89 45 f8          	mov    %rax,-0x8(%rbp)
  406763:	31 c0                	xor    %eax,%eax
  406765:	f3 0f 10 4d ec       	movss  -0x14(%rbp),%xmm1
  40676a:	f3 0f 10 05 6e 1e 00 	movss  0x1e6e(%rip),%xmm0        # 4085e0 <_IO_stdin_used+0x110>
  406771:	00 
  406772:	f3 0f 59 c1          	mulss  %xmm1,%xmm0
  406776:	f3 0f 11 45 f4       	movss  %xmm0,-0xc(%rbp)
  40677b:	48 8d 45 ec          	lea    -0x14(%rbp),%rax
  40677f:	8b 00                	mov    (%rax),%eax
  406781:	89 45 f0             	mov    %eax,-0x10(%rbp)
  406784:	8b 45 f0             	mov    -0x10(%rbp),%eax
  406787:	d1 f8                	sar    %eax
  406789:	ba 82 5a 37 5f       	mov    $0x5f375a82,%edx
  40678e:	29 c2                	sub    %eax,%edx
  406790:	89 d0                	mov    %edx,%eax
  406792:	89 45 f0             	mov    %eax,-0x10(%rbp)
  406795:	48 8d 45 f0          	lea    -0x10(%rbp),%rax
  406799:	f3 0f 10 00          	movss  (%rax),%xmm0
  40679d:	f3 0f 11 45 ec       	movss  %xmm0,-0x14(%rbp)
  4067a2:	f3 0f 10 45 ec       	movss  -0x14(%rbp),%xmm0
  4067a7:	f3 0f 59 45 f4       	mulss  -0xc(%rbp),%xmm0
  4067ac:	f3 0f 10 4d ec       	movss  -0x14(%rbp),%xmm1
  4067b1:	f3 0f 59 c1          	mulss  %xmm1,%xmm0
  4067b5:	f3 0f 10 0d 27 1e 00 	movss  0x1e27(%rip),%xmm1        # 4085e4 <_IO_stdin_used+0x114>
  4067bc:	00 
  4067bd:	f3 0f 5c c8          	subss  %xmm0,%xmm1
  4067c1:	0f 28 c1             	movaps %xmm1,%xmm0
  4067c4:	f3 0f 10 4d ec       	movss  -0x14(%rbp),%xmm1
  4067c9:	f3 0f 59 c1          	mulss  %xmm1,%xmm0
  4067cd:	f3 0f 11 45 ec       	movss  %xmm0,-0x14(%rbp)
  4067d2:	f3 0f 10 45 ec       	movss  -0x14(%rbp),%xmm0
  4067d7:	48 8b 45 f8          	mov    -0x8(%rbp),%rax
  4067db:	64 48 33 04 25 28 00 	xor    %fs:0x28,%rax
  4067e2:	00 00 
  4067e4:	74 05                	je     4067eb <_Z5rsqrtf+0xa2>
  4067e6:	e8 55 a9 ff ff       	callq  401140 <__stack_chk_fail@plt>
  4067eb:	c9                   	leaveq 
  4067ec:	c3                   	retq   

00000000004067ed <_Z6rsqrt1f>:
  4067ed:	55                   	push   %rbp
  4067ee:	48 89 e5             	mov    %rsp,%rbp
  4067f1:	48 83 ec 20          	sub    $0x20,%rsp
  4067f5:	f3 0f 11 45 ec       	movss  %xmm0,-0x14(%rbp)
  4067fa:	64 48 8b 04 25 28 00 	mov    %fs:0x28,%rax
  406801:	00 00 
  406803:	48 89 45 f8          	mov    %rax,-0x8(%rbp)
  406807:	31 c0                	xor    %eax,%eax
  406809:	f3 0f 10 4d ec       	movss  -0x14(%rbp),%xmm1
  40680e:	f3 0f 10 05 ca 1d 00 	movss  0x1dca(%rip),%xmm0        # 4085e0 <_IO_stdin_used+0x110>
  406815:	00 
  406816:	f3 0f 59 c1          	mulss  %xmm1,%xmm0
  40681a:	f3 0f 11 45 f4       	movss  %xmm0,-0xc(%rbp)
  40681f:	48 8d 45 ec          	lea    -0x14(%rbp),%rax
  406823:	8b 00                	mov    (%rax),%eax
  406825:	89 45 f0             	mov    %eax,-0x10(%rbp)
  406828:	8b 45 f0             	mov    -0x10(%rbp),%eax
  40682b:	d1 f8                	sar    %eax
  40682d:	ba 9e 59 37 5f       	mov    $0x5f37599e,%edx
  406832:	29 c2                	sub    %eax,%edx
  406834:	89 d0                	mov    %edx,%eax
  406836:	89 45 f0             	mov    %eax,-0x10(%rbp)
  406839:	48 8d 45 f0          	lea    -0x10(%rbp),%rax
  40683d:	f3 0f 10 00          	movss  (%rax),%xmm0
  406841:	f3 0f 11 45 ec       	movss  %xmm0,-0x14(%rbp)
  406846:	f3 0f 10 45 ec       	movss  -0x14(%rbp),%xmm0
  40684b:	f3 0f 59 45 f4       	mulss  -0xc(%rbp),%xmm0
  406850:	f3 0f 10 4d ec       	movss  -0x14(%rbp),%xmm1
  406855:	f3 0f 59 c1          	mulss  %xmm1,%xmm0
  406859:	f3 0f 10 0d 83 1d 00 	movss  0x1d83(%rip),%xmm1        # 4085e4 <_IO_stdin_used+0x114>
  406860:	00 
  406861:	f3 0f 5c c8          	subss  %xmm0,%xmm1
  406865:	0f 28 c1             	movaps %xmm1,%xmm0
  406868:	f3 0f 10 4d ec       	movss  -0x14(%rbp),%xmm1
  40686d:	f3 0f 59 c1          	mulss  %xmm1,%xmm0
  406871:	f3 0f 11 45 ec       	movss  %xmm0,-0x14(%rbp)
  406876:	f3 0f 10 45 ec       	movss  -0x14(%rbp),%xmm0
  40687b:	f3 0f 59 45 f4       	mulss  -0xc(%rbp),%xmm0
  406880:	f3 0f 10 4d ec       	movss  -0x14(%rbp),%xmm1
  406885:	f3 0f 59 c1          	mulss  %xmm1,%xmm0
  406889:	f3 0f 10 0d 53 1d 00 	movss  0x1d53(%rip),%xmm1        # 4085e4 <_IO_stdin_used+0x114>
  406890:	00 
  406891:	f3 0f 5c c8          	subss  %xmm0,%xmm1
  406895:	0f 28 c1             	movaps %xmm1,%xmm0
  406898:	f3 0f 10 4d ec       	movss  -0x14(%rbp),%xmm1
  40689d:	f3 0f 59 c1          	mulss  %xmm1,%xmm0
  4068a1:	f3 0f 11 45 ec       	movss  %xmm0,-0x14(%rbp)
  4068a6:	f3 0f 10 45 ec       	movss  -0x14(%rbp),%xmm0
  4068ab:	48 8b 45 f8          	mov    -0x8(%rbp),%rax
  4068af:	64 48 33 04 25 28 00 	xor    %fs:0x28,%rax
  4068b6:	00 00 
  4068b8:	74 05                	je     4068bf <_Z6rsqrt1f+0xd2>
  4068ba:	e8 81 a8 ff ff       	callq  401140 <__stack_chk_fail@plt>
  4068bf:	c9                   	leaveq 
  4068c0:	c3                   	retq   

00000000004068c1 <_Z12accurateSqrtf>:
  4068c1:	55                   	push   %rbp
  4068c2:	48 89 e5             	mov    %rsp,%rbp
  4068c5:	48 83 ec 10          	sub    $0x10,%rsp
  4068c9:	f3 0f 11 45 fc       	movss  %xmm0,-0x4(%rbp)
  4068ce:	8b 45 fc             	mov    -0x4(%rbp),%eax
  4068d1:	89 45 f8             	mov    %eax,-0x8(%rbp)
  4068d4:	f3 0f 10 45 f8       	movss  -0x8(%rbp),%xmm0
  4068d9:	e8 0f ff ff ff       	callq  4067ed <_Z6rsqrt1f>
  4068de:	f3 0f 59 45 fc       	mulss  -0x4(%rbp),%xmm0
  4068e3:	c9                   	leaveq 
  4068e4:	c3                   	retq   

00000000004068e5 <_Z8condSwapbRfS_>:
  4068e5:	55                   	push   %rbp
  4068e6:	48 89 e5             	mov    %rsp,%rbp
  4068e9:	89 f8                	mov    %edi,%eax
  4068eb:	48 89 75 e0          	mov    %rsi,-0x20(%rbp)
  4068ef:	48 89 55 d8          	mov    %rdx,-0x28(%rbp)
  4068f3:	88 45 ec             	mov    %al,-0x14(%rbp)
  4068f6:	48 8b 45 e0          	mov    -0x20(%rbp),%rax
  4068fa:	f3 0f 10 00          	movss  (%rax),%xmm0
  4068fe:	f3 0f 11 45 fc       	movss  %xmm0,-0x4(%rbp)
  406903:	80 7d ec 00          	cmpb   $0x0,-0x14(%rbp)
  406907:	74 0a                	je     406913 <_Z8condSwapbRfS_+0x2e>
  406909:	48 8b 45 d8          	mov    -0x28(%rbp),%rax
  40690d:	f3 0f 10 00          	movss  (%rax),%xmm0
  406911:	eb 08                	jmp    40691b <_Z8condSwapbRfS_+0x36>
  406913:	48 8b 45 e0          	mov    -0x20(%rbp),%rax
  406917:	f3 0f 10 00          	movss  (%rax),%xmm0
  40691b:	48 8b 45 e0          	mov    -0x20(%rbp),%rax
  40691f:	f3 0f 11 00          	movss  %xmm0,(%rax)
  406923:	80 7d ec 00          	cmpb   $0x0,-0x14(%rbp)
  406927:	74 07                	je     406930 <_Z8condSwapbRfS_+0x4b>
  406929:	f3 0f 10 45 fc       	movss  -0x4(%rbp),%xmm0
  40692e:	eb 08                	jmp    406938 <_Z8condSwapbRfS_+0x53>
  406930:	48 8b 45 d8          	mov    -0x28(%rbp),%rax
  406934:	f3 0f 10 00          	movss  (%rax),%xmm0
  406938:	48 8b 45 d8          	mov    -0x28(%rbp),%rax
  40693c:	f3 0f 11 00          	movss  %xmm0,(%rax)
  406940:	90                   	nop
  406941:	5d                   	pop    %rbp
  406942:	c3                   	retq   

0000000000406943 <_Z11condNegSwapbRfS_>:
  406943:	55                   	push   %rbp
  406944:	48 89 e5             	mov    %rsp,%rbp
  406947:	89 f8                	mov    %edi,%eax
  406949:	48 89 75 e0          	mov    %rsi,-0x20(%rbp)
  40694d:	48 89 55 d8          	mov    %rdx,-0x28(%rbp)
  406951:	88 45 ec             	mov    %al,-0x14(%rbp)
  406954:	48 8b 45 e0          	mov    -0x20(%rbp),%rax
  406958:	f3 0f 10 08          	movss  (%rax),%xmm1
  40695c:	f3 0f 10 05 8c 1c 00 	movss  0x1c8c(%rip),%xmm0        # 4085f0 <_IO_stdin_used+0x120>
  406963:	00 
  406964:	0f 57 c1             	xorps  %xmm1,%xmm0
  406967:	f3 0f 11 45 fc       	movss  %xmm0,-0x4(%rbp)
  40696c:	80 7d ec 00          	cmpb   $0x0,-0x14(%rbp)
  406970:	74 0a                	je     40697c <_Z11condNegSwapbRfS_+0x39>
  406972:	48 8b 45 d8          	mov    -0x28(%rbp),%rax
  406976:	f3 0f 10 00          	movss  (%rax),%xmm0
  40697a:	eb 08                	jmp    406984 <_Z11condNegSwapbRfS_+0x41>
  40697c:	48 8b 45 e0          	mov    -0x20(%rbp),%rax
  406980:	f3 0f 10 00          	movss  (%rax),%xmm0
  406984:	48 8b 45 e0          	mov    -0x20(%rbp),%rax
  406988:	f3 0f 11 00          	movss  %xmm0,(%rax)
  40698c:	80 7d ec 00          	cmpb   $0x0,-0x14(%rbp)
  406990:	74 07                	je     406999 <_Z11condNegSwapbRfS_+0x56>
  406992:	f3 0f 10 45 fc       	movss  -0x4(%rbp),%xmm0
  406997:	eb 08                	jmp    4069a1 <_Z11condNegSwapbRfS_+0x5e>
  406999:	48 8b 45 d8          	mov    -0x28(%rbp),%rax
  40699d:	f3 0f 10 00          	movss  (%rax),%xmm0
  4069a1:	48 8b 45 d8          	mov    -0x28(%rbp),%rax
  4069a5:	f3 0f 11 00          	movss  %xmm0,(%rax)
  4069a9:	90                   	nop
  4069aa:	5d                   	pop    %rbp
  4069ab:	c3                   	retq   

00000000004069ac <_Z6multABffffffffffffffffffRfS_S_S_S_S_S_S_S_>:
  4069ac:	55                   	push   %rbp
  4069ad:	48 89 e5             	mov    %rsp,%rbp
  4069b0:	f3 0f 11 45 fc       	movss  %xmm0,-0x4(%rbp)
  4069b5:	f3 0f 11 4d f8       	movss  %xmm1,-0x8(%rbp)
  4069ba:	f3 0f 11 55 f4       	movss  %xmm2,-0xc(%rbp)
  4069bf:	f3 0f 11 5d f0       	movss  %xmm3,-0x10(%rbp)
  4069c4:	f3 0f 11 65 ec       	movss  %xmm4,-0x14(%rbp)
  4069c9:	f3 0f 11 6d e8       	movss  %xmm5,-0x18(%rbp)
  4069ce:	f3 0f 11 75 e4       	movss  %xmm6,-0x1c(%rbp)
  4069d3:	f3 0f 11 7d e0       	movss  %xmm7,-0x20(%rbp)
  4069d8:	48 89 7d d8          	mov    %rdi,-0x28(%rbp)
  4069dc:	48 89 75 d0          	mov    %rsi,-0x30(%rbp)
  4069e0:	48 89 55 c8          	mov    %rdx,-0x38(%rbp)
  4069e4:	48 89 4d c0          	mov    %rcx,-0x40(%rbp)
  4069e8:	4c 89 45 b8          	mov    %r8,-0x48(%rbp)
  4069ec:	4c 89 4d b0          	mov    %r9,-0x50(%rbp)
  4069f0:	f3 0f 10 45 fc       	movss  -0x4(%rbp),%xmm0
  4069f5:	0f 28 c8             	movaps %xmm0,%xmm1
  4069f8:	f3 0f 59 4d 18       	mulss  0x18(%rbp),%xmm1
  4069fd:	f3 0f 10 45 f8       	movss  -0x8(%rbp),%xmm0
  406a02:	f3 0f 59 45 30       	mulss  0x30(%rbp),%xmm0
  406a07:	f3 0f 58 c8          	addss  %xmm0,%xmm1
  406a0b:	f3 0f 10 45 f4       	movss  -0xc(%rbp),%xmm0
  406a10:	f3 0f 59 45 48       	mulss  0x48(%rbp),%xmm0
  406a15:	f3 0f 58 c1          	addss  %xmm1,%xmm0
  406a19:	48 8b 45 d8          	mov    -0x28(%rbp),%rax
  406a1d:	f3 0f 11 00          	movss  %xmm0,(%rax)
  406a21:	f3 0f 10 45 fc       	movss  -0x4(%rbp),%xmm0
  406a26:	0f 28 c8             	movaps %xmm0,%xmm1
  406a29:	f3 0f 59 4d 20       	mulss  0x20(%rbp),%xmm1
  406a2e:	f3 0f 10 45 f8       	movss  -0x8(%rbp),%xmm0
  406a33:	f3 0f 59 45 38       	mulss  0x38(%rbp),%xmm0
  406a38:	f3 0f 58 c8          	addss  %xmm0,%xmm1
  406a3c:	f3 0f 10 45 f4       	movss  -0xc(%rbp),%xmm0
  406a41:	f3 0f 59 45 50       	mulss  0x50(%rbp),%xmm0
  406a46:	f3 0f 58 c1          	addss  %xmm1,%xmm0
  406a4a:	48 8b 45 d0          	mov    -0x30(%rbp),%rax
  406a4e:	f3 0f 11 00          	movss  %xmm0,(%rax)
  406a52:	f3 0f 10 45 fc       	movss  -0x4(%rbp),%xmm0
  406a57:	0f 28 c8             	movaps %xmm0,%xmm1
  406a5a:	f3 0f 59 4d 28       	mulss  0x28(%rbp),%xmm1
  406a5f:	f3 0f 10 45 f8       	movss  -0x8(%rbp),%xmm0
  406a64:	f3 0f 59 45 40       	mulss  0x40(%rbp),%xmm0
  406a69:	f3 0f 58 c8          	addss  %xmm0,%xmm1
  406a6d:	f3 0f 10 45 f4       	movss  -0xc(%rbp),%xmm0
  406a72:	f3 0f 59 45 58       	mulss  0x58(%rbp),%xmm0
  406a77:	f3 0f 58 c1          	addss  %xmm1,%xmm0
  406a7b:	48 8b 45 c8          	mov    -0x38(%rbp),%rax
  406a7f:	f3 0f 11 00          	movss  %xmm0,(%rax)
  406a83:	f3 0f 10 45 f0       	movss  -0x10(%rbp),%xmm0
  406a88:	0f 28 c8             	movaps %xmm0,%xmm1
  406a8b:	f3 0f 59 4d 18       	mulss  0x18(%rbp),%xmm1
  406a90:	f3 0f 10 45 ec       	movss  -0x14(%rbp),%xmm0
  406a95:	f3 0f 59 45 30       	mulss  0x30(%rbp),%xmm0
  406a9a:	f3 0f 58 c8          	addss  %xmm0,%xmm1
  406a9e:	f3 0f 10 45 e8       	movss  -0x18(%rbp),%xmm0
  406aa3:	f3 0f 59 45 48       	mulss  0x48(%rbp),%xmm0
  406aa8:	f3 0f 58 c1          	addss  %xmm1,%xmm0
  406aac:	48 8b 45 c0          	mov    -0x40(%rbp),%rax
  406ab0:	f3 0f 11 00          	movss  %xmm0,(%rax)
  406ab4:	f3 0f 10 45 f0       	movss  -0x10(%rbp),%xmm0
  406ab9:	0f 28 c8             	movaps %xmm0,%xmm1
  406abc:	f3 0f 59 4d 20       	mulss  0x20(%rbp),%xmm1
  406ac1:	f3 0f 10 45 ec       	movss  -0x14(%rbp),%xmm0
  406ac6:	f3 0f 59 45 38       	mulss  0x38(%rbp),%xmm0
  406acb:	f3 0f 58 c8          	addss  %xmm0,%xmm1
  406acf:	f3 0f 10 45 e8       	movss  -0x18(%rbp),%xmm0
  406ad4:	f3 0f 59 45 50       	mulss  0x50(%rbp),%xmm0
  406ad9:	f3 0f 58 c1          	addss  %xmm1,%xmm0
  406add:	48 8b 45 b8          	mov    -0x48(%rbp),%rax
  406ae1:	f3 0f 11 00          	movss  %xmm0,(%rax)
  406ae5:	f3 0f 10 45 f0       	movss  -0x10(%rbp),%xmm0
  406aea:	0f 28 c8             	movaps %xmm0,%xmm1
  406aed:	f3 0f 59 4d 28       	mulss  0x28(%rbp),%xmm1
  406af2:	f3 0f 10 45 ec       	movss  -0x14(%rbp),%xmm0
  406af7:	f3 0f 59 45 40       	mulss  0x40(%rbp),%xmm0
  406afc:	f3 0f 58 c8          	addss  %xmm0,%xmm1
  406b00:	f3 0f 10 45 e8       	movss  -0x18(%rbp),%xmm0
  406b05:	f3 0f 59 45 58       	mulss  0x58(%rbp),%xmm0
  406b0a:	f3 0f 58 c1          	addss  %xmm1,%xmm0
  406b0e:	48 8b 45 b0          	mov    -0x50(%rbp),%rax
  406b12:	f3 0f 11 00          	movss  %xmm0,(%rax)
  406b16:	f3 0f 10 45 e4       	movss  -0x1c(%rbp),%xmm0
  406b1b:	0f 28 c8             	movaps %xmm0,%xmm1
  406b1e:	f3 0f 59 4d 18       	mulss  0x18(%rbp),%xmm1
  406b23:	f3 0f 10 45 e0       	movss  -0x20(%rbp),%xmm0
  406b28:	f3 0f 59 45 30       	mulss  0x30(%rbp),%xmm0
  406b2d:	f3 0f 58 c8          	addss  %xmm0,%xmm1
  406b31:	f3 0f 10 45 10       	movss  0x10(%rbp),%xmm0
  406b36:	f3 0f 59 45 48       	mulss  0x48(%rbp),%xmm0
  406b3b:	f3 0f 58 c1          	addss  %xmm1,%xmm0
  406b3f:	48 8b 45 60          	mov    0x60(%rbp),%rax
  406b43:	f3 0f 11 00          	movss  %xmm0,(%rax)
  406b47:	f3 0f 10 45 e4       	movss  -0x1c(%rbp),%xmm0
  406b4c:	0f 28 c8             	movaps %xmm0,%xmm1
  406b4f:	f3 0f 59 4d 20       	mulss  0x20(%rbp),%xmm1
  406b54:	f3 0f 10 45 e0       	movss  -0x20(%rbp),%xmm0
  406b59:	f3 0f 59 45 38       	mulss  0x38(%rbp),%xmm0
  406b5e:	f3 0f 58 c8          	addss  %xmm0,%xmm1
  406b62:	f3 0f 10 45 10       	movss  0x10(%rbp),%xmm0
  406b67:	f3 0f 59 45 50       	mulss  0x50(%rbp),%xmm0
  406b6c:	f3 0f 58 c1          	addss  %xmm1,%xmm0
  406b70:	48 8b 45 68          	mov    0x68(%rbp),%rax
  406b74:	f3 0f 11 00          	movss  %xmm0,(%rax)
  406b78:	f3 0f 10 45 e4       	movss  -0x1c(%rbp),%xmm0
  406b7d:	0f 28 c8             	movaps %xmm0,%xmm1
  406b80:	f3 0f 59 4d 28       	mulss  0x28(%rbp),%xmm1
  406b85:	f3 0f 10 45 e0       	movss  -0x20(%rbp),%xmm0
  406b8a:	f3 0f 59 45 40       	mulss  0x40(%rbp),%xmm0
  406b8f:	f3 0f 58 c8          	addss  %xmm0,%xmm1
  406b93:	f3 0f 10 45 10       	movss  0x10(%rbp),%xmm0
  406b98:	f3 0f 59 45 58       	mulss  0x58(%rbp),%xmm0
  406b9d:	f3 0f 58 c1          	addss  %xmm1,%xmm0
  406ba1:	48 8b 45 70          	mov    0x70(%rbp),%rax
  406ba5:	f3 0f 11 00          	movss  %xmm0,(%rax)
  406ba9:	90                   	nop
  406baa:	5d                   	pop    %rbp
  406bab:	c3                   	retq   

0000000000406bac <_Z7multAtBffffffffffffffffffRfS_S_S_S_S_S_S_S_>:
  406bac:	55                   	push   %rbp
  406bad:	48 89 e5             	mov    %rsp,%rbp
  406bb0:	f3 0f 11 45 fc       	movss  %xmm0,-0x4(%rbp)
  406bb5:	f3 0f 11 4d f8       	movss  %xmm1,-0x8(%rbp)
  406bba:	f3 0f 11 55 f4       	movss  %xmm2,-0xc(%rbp)
  406bbf:	f3 0f 11 5d f0       	movss  %xmm3,-0x10(%rbp)
  406bc4:	f3 0f 11 65 ec       	movss  %xmm4,-0x14(%rbp)
  406bc9:	f3 0f 11 6d e8       	movss  %xmm5,-0x18(%rbp)
  406bce:	f3 0f 11 75 e4       	movss  %xmm6,-0x1c(%rbp)
  406bd3:	f3 0f 11 7d e0       	movss  %xmm7,-0x20(%rbp)
  406bd8:	48 89 7d d8          	mov    %rdi,-0x28(%rbp)
  406bdc:	48 89 75 d0          	mov    %rsi,-0x30(%rbp)
  406be0:	48 89 55 c8          	mov    %rdx,-0x38(%rbp)
  406be4:	48 89 4d c0          	mov    %rcx,-0x40(%rbp)
  406be8:	4c 89 45 b8          	mov    %r8,-0x48(%rbp)
  406bec:	4c 89 4d b0          	mov    %r9,-0x50(%rbp)
  406bf0:	f3 0f 10 45 fc       	movss  -0x4(%rbp),%xmm0
  406bf5:	0f 28 c8             	movaps %xmm0,%xmm1
  406bf8:	f3 0f 59 4d 18       	mulss  0x18(%rbp),%xmm1
  406bfd:	f3 0f 10 45 f0       	movss  -0x10(%rbp),%xmm0
  406c02:	f3 0f 59 45 30       	mulss  0x30(%rbp),%xmm0
  406c07:	f3 0f 58 c8          	addss  %xmm0,%xmm1
  406c0b:	f3 0f 10 45 e4       	movss  -0x1c(%rbp),%xmm0
  406c10:	f3 0f 59 45 48       	mulss  0x48(%rbp),%xmm0
  406c15:	f3 0f 58 c1          	addss  %xmm1,%xmm0
  406c19:	48 8b 45 d8          	mov    -0x28(%rbp),%rax
  406c1d:	f3 0f 11 00          	movss  %xmm0,(%rax)
  406c21:	f3 0f 10 45 fc       	movss  -0x4(%rbp),%xmm0
  406c26:	0f 28 c8             	movaps %xmm0,%xmm1
  406c29:	f3 0f 59 4d 20       	mulss  0x20(%rbp),%xmm1
  406c2e:	f3 0f 10 45 f0       	movss  -0x10(%rbp),%xmm0
  406c33:	f3 0f 59 45 38       	mulss  0x38(%rbp),%xmm0
  406c38:	f3 0f 58 c8          	addss  %xmm0,%xmm1
  406c3c:	f3 0f 10 45 e4       	movss  -0x1c(%rbp),%xmm0
  406c41:	f3 0f 59 45 50       	mulss  0x50(%rbp),%xmm0
  406c46:	f3 0f 58 c1          	addss  %xmm1,%xmm0
  406c4a:	48 8b 45 d0          	mov    -0x30(%rbp),%rax
  406c4e:	f3 0f 11 00          	movss  %xmm0,(%rax)
  406c52:	f3 0f 10 45 fc       	movss  -0x4(%rbp),%xmm0
  406c57:	0f 28 c8             	movaps %xmm0,%xmm1
  406c5a:	f3 0f 59 4d 28       	mulss  0x28(%rbp),%xmm1
  406c5f:	f3 0f 10 45 f0       	movss  -0x10(%rbp),%xmm0
  406c64:	f3 0f 59 45 40       	mulss  0x40(%rbp),%xmm0
  406c69:	f3 0f 58 c8          	addss  %xmm0,%xmm1
  406c6d:	f3 0f 10 45 e4       	movss  -0x1c(%rbp),%xmm0
  406c72:	f3 0f 59 45 58       	mulss  0x58(%rbp),%xmm0
  406c77:	f3 0f 58 c1          	addss  %xmm1,%xmm0
  406c7b:	48 8b 45 c8          	mov    -0x38(%rbp),%rax
  406c7f:	f3 0f 11 00          	movss  %xmm0,(%rax)
  406c83:	f3 0f 10 45 f8       	movss  -0x8(%rbp),%xmm0
  406c88:	0f 28 c8             	movaps %xmm0,%xmm1
  406c8b:	f3 0f 59 4d 18       	mulss  0x18(%rbp),%xmm1
  406c90:	f3 0f 10 45 ec       	movss  -0x14(%rbp),%xmm0
  406c95:	f3 0f 59 45 30       	mulss  0x30(%rbp),%xmm0
  406c9a:	f3 0f 58 c8          	addss  %xmm0,%xmm1
  406c9e:	f3 0f 10 45 e0       	movss  -0x20(%rbp),%xmm0
  406ca3:	f3 0f 59 45 48       	mulss  0x48(%rbp),%xmm0
  406ca8:	f3 0f 58 c1          	addss  %xmm1,%xmm0
  406cac:	48 8b 45 c0          	mov    -0x40(%rbp),%rax
  406cb0:	f3 0f 11 00          	movss  %xmm0,(%rax)
  406cb4:	f3 0f 10 45 f8       	movss  -0x8(%rbp),%xmm0
  406cb9:	0f 28 c8             	movaps %xmm0,%xmm1
  406cbc:	f3 0f 59 4d 20       	mulss  0x20(%rbp),%xmm1
  406cc1:	f3 0f 10 45 ec       	movss  -0x14(%rbp),%xmm0
  406cc6:	f3 0f 59 45 38       	mulss  0x38(%rbp),%xmm0
  406ccb:	f3 0f 58 c8          	addss  %xmm0,%xmm1
  406ccf:	f3 0f 10 45 e0       	movss  -0x20(%rbp),%xmm0
  406cd4:	f3 0f 59 45 50       	mulss  0x50(%rbp),%xmm0
  406cd9:	f3 0f 58 c1          	addss  %xmm1,%xmm0
  406cdd:	48 8b 45 b8          	mov    -0x48(%rbp),%rax
  406ce1:	f3 0f 11 00          	movss  %xmm0,(%rax)
  406ce5:	f3 0f 10 45 f8       	movss  -0x8(%rbp),%xmm0
  406cea:	0f 28 c8             	movaps %xmm0,%xmm1
  406ced:	f3 0f 59 4d 28       	mulss  0x28(%rbp),%xmm1
  406cf2:	f3 0f 10 45 ec       	movss  -0x14(%rbp),%xmm0
  406cf7:	f3 0f 59 45 40       	mulss  0x40(%rbp),%xmm0
  406cfc:	f3 0f 58 c8          	addss  %xmm0,%xmm1
  406d00:	f3 0f 10 45 e0       	movss  -0x20(%rbp),%xmm0
  406d05:	f3 0f 59 45 58       	mulss  0x58(%rbp),%xmm0
  406d0a:	f3 0f 58 c1          	addss  %xmm1,%xmm0
  406d0e:	48 8b 45 b0          	mov    -0x50(%rbp),%rax
  406d12:	f3 0f 11 00          	movss  %xmm0,(%rax)
  406d16:	f3 0f 10 45 f4       	movss  -0xc(%rbp),%xmm0
  406d1b:	0f 28 c8             	movaps %xmm0,%xmm1
  406d1e:	f3 0f 59 4d 18       	mulss  0x18(%rbp),%xmm1
  406d23:	f3 0f 10 45 e8       	movss  -0x18(%rbp),%xmm0
  406d28:	f3 0f 59 45 30       	mulss  0x30(%rbp),%xmm0
  406d2d:	f3 0f 58 c8          	addss  %xmm0,%xmm1
  406d31:	f3 0f 10 45 10       	movss  0x10(%rbp),%xmm0
  406d36:	f3 0f 59 45 48       	mulss  0x48(%rbp),%xmm0
  406d3b:	f3 0f 58 c1          	addss  %xmm1,%xmm0
  406d3f:	48 8b 45 60          	mov    0x60(%rbp),%rax
  406d43:	f3 0f 11 00          	movss  %xmm0,(%rax)
  406d47:	f3 0f 10 45 f4       	movss  -0xc(%rbp),%xmm0
  406d4c:	0f 28 c8             	movaps %xmm0,%xmm1
  406d4f:	f3 0f 59 4d 20       	mulss  0x20(%rbp),%xmm1
  406d54:	f3 0f 10 45 e8       	movss  -0x18(%rbp),%xmm0
  406d59:	f3 0f 59 45 38       	mulss  0x38(%rbp),%xmm0
  406d5e:	f3 0f 58 c8          	addss  %xmm0,%xmm1
  406d62:	f3 0f 10 45 10       	movss  0x10(%rbp),%xmm0
  406d67:	f3 0f 59 45 50       	mulss  0x50(%rbp),%xmm0
  406d6c:	f3 0f 58 c1          	addss  %xmm1,%xmm0
  406d70:	48 8b 45 68          	mov    0x68(%rbp),%rax
  406d74:	f3 0f 11 00          	movss  %xmm0,(%rax)
  406d78:	f3 0f 10 45 f4       	movss  -0xc(%rbp),%xmm0
  406d7d:	0f 28 c8             	movaps %xmm0,%xmm1
  406d80:	f3 0f 59 4d 28       	mulss  0x28(%rbp),%xmm1
  406d85:	f3 0f 10 45 e8       	movss  -0x18(%rbp),%xmm0
  406d8a:	f3 0f 59 45 40       	mulss  0x40(%rbp),%xmm0
  406d8f:	f3 0f 58 c8          	addss  %xmm0,%xmm1
  406d93:	f3 0f 10 45 10       	movss  0x10(%rbp),%xmm0
  406d98:	f3 0f 59 45 58       	mulss  0x58(%rbp),%xmm0
  406d9d:	f3 0f 58 c1          	addss  %xmm1,%xmm0
  406da1:	48 8b 45 70          	mov    0x70(%rbp),%rax
  406da5:	f3 0f 11 00          	movss  %xmm0,(%rax)
  406da9:	90                   	nop
  406daa:	5d                   	pop    %rbp
  406dab:	c3                   	retq   

0000000000406dac <_Z10quatToMat3PKfRfS1_S1_S1_S1_S1_S1_S1_S1_>:
  406dac:	55                   	push   %rbp
  406dad:	48 89 e5             	mov    %rsp,%rbp
  406db0:	48 89 7d b8          	mov    %rdi,-0x48(%rbp)
  406db4:	48 89 75 b0          	mov    %rsi,-0x50(%rbp)
  406db8:	48 89 55 a8          	mov    %rdx,-0x58(%rbp)
  406dbc:	48 89 4d a0          	mov    %rcx,-0x60(%rbp)
  406dc0:	4c 89 45 98          	mov    %r8,-0x68(%rbp)
  406dc4:	4c 89 4d 90          	mov    %r9,-0x70(%rbp)
  406dc8:	48 8b 45 b8          	mov    -0x48(%rbp),%rax
  406dcc:	48 83 c0 0c          	add    $0xc,%rax
  406dd0:	f3 0f 10 00          	movss  (%rax),%xmm0
  406dd4:	f3 0f 11 45 cc       	movss  %xmm0,-0x34(%rbp)
  406dd9:	48 8b 45 b8          	mov    -0x48(%rbp),%rax
  406ddd:	f3 0f 10 00          	movss  (%rax),%xmm0
  406de1:	f3 0f 11 45 d0       	movss  %xmm0,-0x30(%rbp)
  406de6:	48 8b 45 b8          	mov    -0x48(%rbp),%rax
  406dea:	48 83 c0 04          	add    $0x4,%rax
  406dee:	f3 0f 10 00          	movss  (%rax),%xmm0
  406df2:	f3 0f 11 45 d4       	movss  %xmm0,-0x2c(%rbp)
  406df7:	48 8b 45 b8          	mov    -0x48(%rbp),%rax
  406dfb:	48 83 c0 08          	add    $0x8,%rax
  406dff:	f3 0f 10 00          	movss  (%rax),%xmm0
  406e03:	f3 0f 11 45 d8       	movss  %xmm0,-0x28(%rbp)
  406e08:	f3 0f 10 45 d0       	movss  -0x30(%rbp),%xmm0
  406e0d:	f3 0f 59 45 d0       	mulss  -0x30(%rbp),%xmm0
  406e12:	f3 0f 11 45 dc       	movss  %xmm0,-0x24(%rbp)
  406e17:	f3 0f 10 45 d4       	movss  -0x2c(%rbp),%xmm0
  406e1c:	f3 0f 59 45 d4       	mulss  -0x2c(%rbp),%xmm0
  406e21:	f3 0f 11 45 e0       	movss  %xmm0,-0x20(%rbp)
  406e26:	f3 0f 10 45 d8       	movss  -0x28(%rbp),%xmm0
  406e2b:	f3 0f 59 45 d8       	mulss  -0x28(%rbp),%xmm0
  406e30:	f3 0f 11 45 e4       	movss  %xmm0,-0x1c(%rbp)
  406e35:	f3 0f 10 45 d0       	movss  -0x30(%rbp),%xmm0
  406e3a:	f3 0f 59 45 d8       	mulss  -0x28(%rbp),%xmm0
  406e3f:	f3 0f 11 45 e8       	movss  %xmm0,-0x18(%rbp)
  406e44:	f3 0f 10 45 d0       	movss  -0x30(%rbp),%xmm0
  406e49:	f3 0f 59 45 d4       	mulss  -0x2c(%rbp),%xmm0
  406e4e:	f3 0f 11 45 ec       	movss  %xmm0,-0x14(%rbp)
  406e53:	f3 0f 10 45 d4       	movss  -0x2c(%rbp),%xmm0
  406e58:	f3 0f 59 45 d8       	mulss  -0x28(%rbp),%xmm0
  406e5d:	f3 0f 11 45 f0       	movss  %xmm0,-0x10(%rbp)
  406e62:	f3 0f 10 45 cc       	movss  -0x34(%rbp),%xmm0
  406e67:	f3 0f 59 45 d0       	mulss  -0x30(%rbp),%xmm0
  406e6c:	f3 0f 11 45 f4       	movss  %xmm0,-0xc(%rbp)
  406e71:	f3 0f 10 45 cc       	movss  -0x34(%rbp),%xmm0
  406e76:	f3 0f 59 45 d4       	mulss  -0x2c(%rbp),%xmm0
  406e7b:	f3 0f 11 45 f8       	movss  %xmm0,-0x8(%rbp)
  406e80:	f3 0f 10 45 cc       	movss  -0x34(%rbp),%xmm0
  406e85:	f3 0f 59 45 d8       	mulss  -0x28(%rbp),%xmm0
  406e8a:	f3 0f 11 45 fc       	movss  %xmm0,-0x4(%rbp)
  406e8f:	f3 0f 10 45 e0       	movss  -0x20(%rbp),%xmm0
  406e94:	f3 0f 58 45 e4       	addss  -0x1c(%rbp),%xmm0
  406e99:	f3 0f 58 c0          	addss  %xmm0,%xmm0
  406e9d:	f3 0f 10 0d 5b 17 00 	movss  0x175b(%rip),%xmm1        # 408600 <_IO_stdin_used+0x130>
  406ea4:	00 
  406ea5:	f3 0f 5c c8          	subss  %xmm0,%xmm1
  406ea9:	0f 28 c1             	movaps %xmm1,%xmm0
  406eac:	48 8b 45 b0          	mov    -0x50(%rbp),%rax
  406eb0:	f3 0f 11 00          	movss  %xmm0,(%rax)
  406eb4:	f3 0f 10 45 ec       	movss  -0x14(%rbp),%xmm0
  406eb9:	f3 0f 5c 45 fc       	subss  -0x4(%rbp),%xmm0
  406ebe:	f3 0f 58 c0          	addss  %xmm0,%xmm0
  406ec2:	48 8b 45 a8          	mov    -0x58(%rbp),%rax
  406ec6:	f3 0f 11 00          	movss  %xmm0,(%rax)
  406eca:	f3 0f 10 45 e8       	movss  -0x18(%rbp),%xmm0
  406ecf:	f3 0f 58 45 f8       	addss  -0x8(%rbp),%xmm0
  406ed4:	f3 0f 58 c0          	addss  %xmm0,%xmm0
  406ed8:	48 8b 45 a0          	mov    -0x60(%rbp),%rax
  406edc:	f3 0f 11 00          	movss  %xmm0,(%rax)
  406ee0:	f3 0f 10 45 ec       	movss  -0x14(%rbp),%xmm0
  406ee5:	f3 0f 58 45 fc       	addss  -0x4(%rbp),%xmm0
  406eea:	f3 0f 58 c0          	addss  %xmm0,%xmm0
  406eee:	48 8b 45 98          	mov    -0x68(%rbp),%rax
  406ef2:	f3 0f 11 00          	movss  %xmm0,(%rax)
  406ef6:	f3 0f 10 45 dc       	movss  -0x24(%rbp),%xmm0
  406efb:	f3 0f 58 45 e4       	addss  -0x1c(%rbp),%xmm0
  406f00:	f3 0f 58 c0          	addss  %xmm0,%xmm0
  406f04:	f3 0f 10 0d f4 16 00 	movss  0x16f4(%rip),%xmm1        # 408600 <_IO_stdin_used+0x130>
  406f0b:	00 
  406f0c:	f3 0f 5c c8          	subss  %xmm0,%xmm1
  406f10:	0f 28 c1             	movaps %xmm1,%xmm0
  406f13:	48 8b 45 90          	mov    -0x70(%rbp),%rax
  406f17:	f3 0f 11 00          	movss  %xmm0,(%rax)
  406f1b:	f3 0f 10 45 f0       	movss  -0x10(%rbp),%xmm0
  406f20:	f3 0f 5c 45 f4       	subss  -0xc(%rbp),%xmm0
  406f25:	f3 0f 58 c0          	addss  %xmm0,%xmm0
  406f29:	48 8b 45 10          	mov    0x10(%rbp),%rax
  406f2d:	f3 0f 11 00          	movss  %xmm0,(%rax)
  406f31:	f3 0f 10 45 e8       	movss  -0x18(%rbp),%xmm0
  406f36:	f3 0f 5c 45 f8       	subss  -0x8(%rbp),%xmm0
  406f3b:	f3 0f 58 c0          	addss  %xmm0,%xmm0
  406f3f:	48 8b 45 18          	mov    0x18(%rbp),%rax
  406f43:	f3 0f 11 00          	movss  %xmm0,(%rax)
  406f47:	f3 0f 10 45 f0       	movss  -0x10(%rbp),%xmm0
  406f4c:	f3 0f 58 45 f4       	addss  -0xc(%rbp),%xmm0
  406f51:	f3 0f 58 c0          	addss  %xmm0,%xmm0
  406f55:	48 8b 45 20          	mov    0x20(%rbp),%rax
  406f59:	f3 0f 11 00          	movss  %xmm0,(%rax)
  406f5d:	f3 0f 10 45 dc       	movss  -0x24(%rbp),%xmm0
  406f62:	f3 0f 58 45 e0       	addss  -0x20(%rbp),%xmm0
  406f67:	f3 0f 58 c0          	addss  %xmm0,%xmm0
  406f6b:	f3 0f 10 0d 8d 16 00 	movss  0x168d(%rip),%xmm1        # 408600 <_IO_stdin_used+0x130>
  406f72:	00 
  406f73:	f3 0f 5c c8          	subss  %xmm0,%xmm1
  406f77:	0f 28 c1             	movaps %xmm1,%xmm0
  406f7a:	48 8b 45 28          	mov    0x28(%rbp),%rax
  406f7e:	f3 0f 11 00          	movss  %xmm0,(%rax)
  406f82:	90                   	nop
  406f83:	5d                   	pop    %rbp
  406f84:	c3                   	retq   

0000000000406f85 <_Z27approximateGivensQuaternionfffRfS_>:
  406f85:	55                   	push   %rbp
  406f86:	48 89 e5             	mov    %rsp,%rbp
  406f89:	48 83 ec 30          	sub    $0x30,%rsp
  406f8d:	f3 0f 11 45 ec       	movss  %xmm0,-0x14(%rbp)
  406f92:	f3 0f 11 4d e8       	movss  %xmm1,-0x18(%rbp)
  406f97:	f3 0f 11 55 e4       	movss  %xmm2,-0x1c(%rbp)
  406f9c:	48 89 7d d8          	mov    %rdi,-0x28(%rbp)
  406fa0:	48 89 75 d0          	mov    %rsi,-0x30(%rbp)
  406fa4:	f3 0f 10 45 ec       	movss  -0x14(%rbp),%xmm0
  406fa9:	f3 0f 5c 45 e4       	subss  -0x1c(%rbp),%xmm0
  406fae:	f3 0f 58 c0          	addss  %xmm0,%xmm0
  406fb2:	48 8b 45 d8          	mov    -0x28(%rbp),%rax
  406fb6:	f3 0f 11 00          	movss  %xmm0,(%rax)
  406fba:	48 8b 45 d0          	mov    -0x30(%rbp),%rax
  406fbe:	f3 0f 10 45 e8       	movss  -0x18(%rbp),%xmm0
  406fc3:	f3 0f 11 00          	movss  %xmm0,(%rax)
  406fc7:	48 8b 45 d0          	mov    -0x30(%rbp),%rax
  406fcb:	f3 0f 10 00          	movss  (%rax),%xmm0
  406fcf:	f3 0f 5a c0          	cvtss2sd %xmm0,%xmm0
  406fd3:	f2 0f 10 0d 2d 16 00 	movsd  0x162d(%rip),%xmm1        # 408608 <_IO_stdin_used+0x138>
  406fda:	00 
  406fdb:	f2 0f 59 c8          	mulsd  %xmm0,%xmm1
  406fdf:	48 8b 45 d0          	mov    -0x30(%rbp),%rax
  406fe3:	f3 0f 10 00          	movss  (%rax),%xmm0
  406fe7:	f3 0f 5a c0          	cvtss2sd %xmm0,%xmm0
  406feb:	f2 0f 59 c8          	mulsd  %xmm0,%xmm1
  406fef:	48 8b 45 d8          	mov    -0x28(%rbp),%rax
  406ff3:	f3 0f 10 10          	movss  (%rax),%xmm2
  406ff7:	48 8b 45 d8          	mov    -0x28(%rbp),%rax
  406ffb:	f3 0f 10 00          	movss  (%rax),%xmm0
  406fff:	f3 0f 59 c2          	mulss  %xmm2,%xmm0
  407003:	f3 0f 5a c0          	cvtss2sd %xmm0,%xmm0
  407007:	66 0f 2e c1          	ucomisd %xmm1,%xmm0
  40700b:	0f 97 c0             	seta   %al
  40700e:	88 45 fb             	mov    %al,-0x5(%rbp)
  407011:	48 8b 45 d8          	mov    -0x28(%rbp),%rax
  407015:	f3 0f 10 08          	movss  (%rax),%xmm1
  407019:	48 8b 45 d8          	mov    -0x28(%rbp),%rax
  40701d:	f3 0f 10 00          	movss  (%rax),%xmm0
  407021:	f3 0f 59 c8          	mulss  %xmm0,%xmm1
  407025:	48 8b 45 d0          	mov    -0x30(%rbp),%rax
  407029:	f3 0f 10 10          	movss  (%rax),%xmm2
  40702d:	48 8b 45 d0          	mov    -0x30(%rbp),%rax
  407031:	f3 0f 10 00          	movss  (%rax),%xmm0
  407035:	f3 0f 59 c2          	mulss  %xmm2,%xmm0
  407039:	f3 0f 58 c1          	addss  %xmm1,%xmm0
  40703d:	e8 07 f7 ff ff       	callq  406749 <_Z5rsqrtf>
  407042:	66 0f 7e c0          	movd   %xmm0,%eax
  407046:	89 45 fc             	mov    %eax,-0x4(%rbp)
  407049:	80 7d fb 00          	cmpb   $0x0,-0x5(%rbp)
  40704d:	74 0f                	je     40705e <_Z27approximateGivensQuaternionfffRfS_+0xd9>
  40704f:	48 8b 45 d8          	mov    -0x28(%rbp),%rax
  407053:	f3 0f 10 00          	movss  (%rax),%xmm0
  407057:	f3 0f 59 45 fc       	mulss  -0x4(%rbp),%xmm0
  40705c:	eb 08                	jmp    407066 <_Z27approximateGivensQuaternionfffRfS_+0xe1>
  40705e:	f3 0f 10 05 aa 15 00 	movss  0x15aa(%rip),%xmm0        # 408610 <_IO_stdin_used+0x140>
  407065:	00 
  407066:	48 8b 45 d8          	mov    -0x28(%rbp),%rax
  40706a:	f3 0f 11 00          	movss  %xmm0,(%rax)
  40706e:	80 7d fb 00          	cmpb   $0x0,-0x5(%rbp)
  407072:	74 0f                	je     407083 <_Z27approximateGivensQuaternionfffRfS_+0xfe>
  407074:	48 8b 45 d0          	mov    -0x30(%rbp),%rax
  407078:	f3 0f 10 00          	movss  (%rax),%xmm0
  40707c:	f3 0f 59 45 fc       	mulss  -0x4(%rbp),%xmm0
  407081:	eb 08                	jmp    40708b <_Z27approximateGivensQuaternionfffRfS_+0x106>
  407083:	f3 0f 10 05 89 15 00 	movss  0x1589(%rip),%xmm0        # 408614 <_IO_stdin_used+0x144>
  40708a:	00 
  40708b:	48 8b 45 d0          	mov    -0x30(%rbp),%rax
  40708f:	f3 0f 11 00          	movss  %xmm0,(%rax)
  407093:	90                   	nop
  407094:	c9                   	leaveq 
  407095:	c3                   	retq   

0000000000407096 <_Z17jacobiConjugationiiiRfS_S_S_S_S_Pf>:
  407096:	55                   	push   %rbp
  407097:	48 89 e5             	mov    %rsp,%rbp
  40709a:	48 81 ec a0 00 00 00 	sub    $0xa0,%rsp
  4070a1:	89 7d ac             	mov    %edi,-0x54(%rbp)
  4070a4:	89 75 a8             	mov    %esi,-0x58(%rbp)
  4070a7:	89 55 a4             	mov    %edx,-0x5c(%rbp)
  4070aa:	48 89 4d 98          	mov    %rcx,-0x68(%rbp)
  4070ae:	4c 89 45 90          	mov    %r8,-0x70(%rbp)
  4070b2:	4c 89 4d 88          	mov    %r9,-0x78(%rbp)
  4070b6:	48 8b 45 10          	mov    0x10(%rbp),%rax
  4070ba:	48 89 45 80          	mov    %rax,-0x80(%rbp)
  4070be:	48 8b 45 18          	mov    0x18(%rbp),%rax
  4070c2:	48 89 85 78 ff ff ff 	mov    %rax,-0x88(%rbp)
  4070c9:	48 8b 45 20          	mov    0x20(%rbp),%rax
  4070cd:	48 89 85 70 ff ff ff 	mov    %rax,-0x90(%rbp)
  4070d4:	48 8b 45 28          	mov    0x28(%rbp),%rax
  4070d8:	48 89 85 68 ff ff ff 	mov    %rax,-0x98(%rbp)
  4070df:	64 48 8b 04 25 28 00 	mov    %fs:0x28,%rax
  4070e6:	00 00 
  4070e8:	48 89 45 f8          	mov    %rax,-0x8(%rbp)
  4070ec:	31 c0                	xor    %eax,%eax
  4070ee:	48 8b 45 88          	mov    -0x78(%rbp),%rax
  4070f2:	f3 0f 10 08          	movss  (%rax),%xmm1
  4070f6:	48 8b 45 90          	mov    -0x70(%rbp),%rax
  4070fa:	f3 0f 10 00          	movss  (%rax),%xmm0
  4070fe:	48 8b 45 98          	mov    -0x68(%rbp),%rax
  407102:	8b 00                	mov    (%rax),%eax
  407104:	48 8d 4d b8          	lea    -0x48(%rbp),%rcx
  407108:	48 8d 55 b4          	lea    -0x4c(%rbp),%rdx
  40710c:	48 89 ce             	mov    %rcx,%rsi
  40710f:	48 89 d7             	mov    %rdx,%rdi
  407112:	0f 28 d1             	movaps %xmm1,%xmm2
  407115:	0f 28 c8             	movaps %xmm0,%xmm1
  407118:	89 85 64 ff ff ff    	mov    %eax,-0x9c(%rbp)
  40711e:	f3 0f 10 85 64 ff ff 	movss  -0x9c(%rbp),%xmm0
  407125:	ff 
  407126:	e8 5a fe ff ff       	callq  406f85 <_Z27approximateGivensQuaternionfffRfS_>
  40712b:	f3 0f 10 4d b4       	movss  -0x4c(%rbp),%xmm1
  407130:	f3 0f 10 45 b4       	movss  -0x4c(%rbp),%xmm0
  407135:	f3 0f 59 c8          	mulss  %xmm0,%xmm1
  407139:	f3 0f 10 55 b8       	movss  -0x48(%rbp),%xmm2
  40713e:	f3 0f 10 45 b8       	movss  -0x48(%rbp),%xmm0
  407143:	f3 0f 59 c2          	mulss  %xmm2,%xmm0
  407147:	f3 0f 58 c1          	addss  %xmm1,%xmm0
  40714b:	f3 0f 11 45 bc       	movss  %xmm0,-0x44(%rbp)
  407150:	f3 0f 10 4d b4       	movss  -0x4c(%rbp),%xmm1
  407155:	f3 0f 10 45 b4       	movss  -0x4c(%rbp),%xmm0
  40715a:	f3 0f 59 c1          	mulss  %xmm1,%xmm0
  40715e:	f3 0f 10 55 b8       	movss  -0x48(%rbp),%xmm2
  407163:	f3 0f 10 4d b8       	movss  -0x48(%rbp),%xmm1
  407168:	f3 0f 59 ca          	mulss  %xmm2,%xmm1
  40716c:	f3 0f 5c c1          	subss  %xmm1,%xmm0
  407170:	f3 0f 5e 45 bc       	divss  -0x44(%rbp),%xmm0
  407175:	f3 0f 11 45 c0       	movss  %xmm0,-0x40(%rbp)
  40717a:	f3 0f 10 45 b8       	movss  -0x48(%rbp),%xmm0
  40717f:	f3 0f 58 c0          	addss  %xmm0,%xmm0
  407183:	f3 0f 10 4d b4       	movss  -0x4c(%rbp),%xmm1
  407188:	f3 0f 59 c1          	mulss  %xmm1,%xmm0
  40718c:	f3 0f 5e 45 bc       	divss  -0x44(%rbp),%xmm0
  407191:	f3 0f 11 45 c4       	movss  %xmm0,-0x3c(%rbp)
  407196:	48 8b 45 98          	mov    -0x68(%rbp),%rax
  40719a:	f3 0f 10 00          	movss  (%rax),%xmm0
  40719e:	f3 0f 11 45 c8       	movss  %xmm0,-0x38(%rbp)
  4071a3:	48 8b 45 90          	mov    -0x70(%rbp),%rax
  4071a7:	f3 0f 10 00          	movss  (%rax),%xmm0
  4071ab:	f3 0f 11 45 cc       	movss  %xmm0,-0x34(%rbp)
  4071b0:	48 8b 45 88          	mov    -0x78(%rbp),%rax
  4071b4:	f3 0f 10 00          	movss  (%rax),%xmm0
  4071b8:	f3 0f 11 45 d0       	movss  %xmm0,-0x30(%rbp)
  4071bd:	48 8b 45 80          	mov    -0x80(%rbp),%rax
  4071c1:	f3 0f 10 00          	movss  (%rax),%xmm0
  4071c5:	f3 0f 11 45 d4       	movss  %xmm0,-0x2c(%rbp)
  4071ca:	48 8b 85 78 ff ff ff 	mov    -0x88(%rbp),%rax
  4071d1:	f3 0f 10 00          	movss  (%rax),%xmm0
  4071d5:	f3 0f 11 45 d8       	movss  %xmm0,-0x28(%rbp)
  4071da:	48 8b 85 70 ff ff ff 	mov    -0x90(%rbp),%rax
  4071e1:	f3 0f 10 00          	movss  (%rax),%xmm0
  4071e5:	f3 0f 11 45 dc       	movss  %xmm0,-0x24(%rbp)
  4071ea:	f3 0f 10 45 c0       	movss  -0x40(%rbp),%xmm0
  4071ef:	0f 28 c8             	movaps %xmm0,%xmm1
  4071f2:	f3 0f 59 4d c8       	mulss  -0x38(%rbp),%xmm1
  4071f7:	f3 0f 10 45 c4       	movss  -0x3c(%rbp),%xmm0
  4071fc:	f3 0f 59 45 cc       	mulss  -0x34(%rbp),%xmm0
  407201:	f3 0f 58 c1          	addss  %xmm1,%xmm0
  407205:	0f 28 c8             	movaps %xmm0,%xmm1
  407208:	f3 0f 59 4d c0       	mulss  -0x40(%rbp),%xmm1
  40720d:	f3 0f 10 45 c0       	movss  -0x40(%rbp),%xmm0
  407212:	0f 28 d0             	movaps %xmm0,%xmm2
  407215:	f3 0f 59 55 cc       	mulss  -0x34(%rbp),%xmm2
  40721a:	f3 0f 10 45 c4       	movss  -0x3c(%rbp),%xmm0
  40721f:	f3 0f 59 45 d0       	mulss  -0x30(%rbp),%xmm0
  407224:	f3 0f 58 c2          	addss  %xmm2,%xmm0
  407228:	f3 0f 59 45 c4       	mulss  -0x3c(%rbp),%xmm0
  40722d:	f3 0f 58 c1          	addss  %xmm1,%xmm0
  407231:	48 8b 45 98          	mov    -0x68(%rbp),%rax
  407235:	f3 0f 11 00          	movss  %xmm0,(%rax)
  407239:	f3 0f 10 4d c4       	movss  -0x3c(%rbp),%xmm1
  40723e:	f3 0f 10 05 aa 13 00 	movss  0x13aa(%rip),%xmm0        # 4085f0 <_IO_stdin_used+0x120>
  407245:	00 
  407246:	0f 57 c1             	xorps  %xmm1,%xmm0
  407249:	0f 28 c8             	movaps %xmm0,%xmm1
  40724c:	f3 0f 59 4d c8       	mulss  -0x38(%rbp),%xmm1
  407251:	f3 0f 10 45 c0       	movss  -0x40(%rbp),%xmm0
  407256:	f3 0f 59 45 cc       	mulss  -0x34(%rbp),%xmm0
  40725b:	f3 0f 58 c1          	addss  %xmm1,%xmm0
  40725f:	0f 28 c8             	movaps %xmm0,%xmm1
  407262:	f3 0f 59 4d c0       	mulss  -0x40(%rbp),%xmm1
  407267:	f3 0f 10 55 c4       	movss  -0x3c(%rbp),%xmm2
  40726c:	f3 0f 10 05 7c 13 00 	movss  0x137c(%rip),%xmm0        # 4085f0 <_IO_stdin_used+0x120>
  407273:	00 
  407274:	0f 57 c2             	xorps  %xmm2,%xmm0
  407277:	0f 28 d0             	movaps %xmm0,%xmm2
  40727a:	f3 0f 59 55 cc       	mulss  -0x34(%rbp),%xmm2
  40727f:	f3 0f 10 45 c0       	movss  -0x40(%rbp),%xmm0
  407284:	f3 0f 59 45 d0       	mulss  -0x30(%rbp),%xmm0
  407289:	f3 0f 58 c2          	addss  %xmm2,%xmm0
  40728d:	f3 0f 59 45 c4       	mulss  -0x3c(%rbp),%xmm0
  407292:	f3 0f 58 c1          	addss  %xmm1,%xmm0
  407296:	48 8b 45 90          	mov    -0x70(%rbp),%rax
  40729a:	f3 0f 11 00          	movss  %xmm0,(%rax)
  40729e:	f3 0f 10 4d c4       	movss  -0x3c(%rbp),%xmm1
  4072a3:	f3 0f 10 05 45 13 00 	movss  0x1345(%rip),%xmm0        # 4085f0 <_IO_stdin_used+0x120>
  4072aa:	00 
  4072ab:	0f 57 c8             	xorps  %xmm0,%xmm1
  4072ae:	f3 0f 10 55 c4       	movss  -0x3c(%rbp),%xmm2
  4072b3:	f3 0f 10 05 35 13 00 	movss  0x1335(%rip),%xmm0        # 4085f0 <_IO_stdin_used+0x120>
  4072ba:	00 
  4072bb:	0f 57 c2             	xorps  %xmm2,%xmm0
  4072be:	0f 28 d0             	movaps %xmm0,%xmm2
  4072c1:	f3 0f 59 55 c8       	mulss  -0x38(%rbp),%xmm2
  4072c6:	f3 0f 10 45 c0       	movss  -0x40(%rbp),%xmm0
  4072cb:	f3 0f 59 45 cc       	mulss  -0x34(%rbp),%xmm0
  4072d0:	f3 0f 58 c2          	addss  %xmm2,%xmm0
  4072d4:	f3 0f 59 c8          	mulss  %xmm0,%xmm1
  4072d8:	f3 0f 10 55 c4       	movss  -0x3c(%rbp),%xmm2
  4072dd:	f3 0f 10 05 0b 13 00 	movss  0x130b(%rip),%xmm0        # 4085f0 <_IO_stdin_used+0x120>
  4072e4:	00 
  4072e5:	0f 57 c2             	xorps  %xmm2,%xmm0
  4072e8:	0f 28 d0             	movaps %xmm0,%xmm2
  4072eb:	f3 0f 59 55 cc       	mulss  -0x34(%rbp),%xmm2
  4072f0:	f3 0f 10 45 c0       	movss  -0x40(%rbp),%xmm0
  4072f5:	f3 0f 59 45 d0       	mulss  -0x30(%rbp),%xmm0
  4072fa:	f3 0f 58 c2          	addss  %xmm2,%xmm0
  4072fe:	f3 0f 59 45 c0       	mulss  -0x40(%rbp),%xmm0
  407303:	f3 0f 58 c1          	addss  %xmm1,%xmm0
  407307:	48 8b 45 88          	mov    -0x78(%rbp),%rax
  40730b:	f3 0f 11 00          	movss  %xmm0,(%rax)
  40730f:	f3 0f 10 45 c0       	movss  -0x40(%rbp),%xmm0
  407314:	0f 28 c8             	movaps %xmm0,%xmm1
  407317:	f3 0f 59 4d d4       	mulss  -0x2c(%rbp),%xmm1
  40731c:	f3 0f 10 45 c4       	movss  -0x3c(%rbp),%xmm0
  407321:	f3 0f 59 45 d8       	mulss  -0x28(%rbp),%xmm0
  407326:	f3 0f 58 c1          	addss  %xmm1,%xmm0
  40732a:	48 8b 45 80          	mov    -0x80(%rbp),%rax
  40732e:	f3 0f 11 00          	movss  %xmm0,(%rax)
  407332:	f3 0f 10 4d c4       	movss  -0x3c(%rbp),%xmm1
  407337:	f3 0f 10 05 b1 12 00 	movss  0x12b1(%rip),%xmm0        # 4085f0 <_IO_stdin_used+0x120>
  40733e:	00 
  40733f:	0f 57 c1             	xorps  %xmm1,%xmm0
  407342:	0f 28 c8             	movaps %xmm0,%xmm1
  407345:	f3 0f 59 4d d4       	mulss  -0x2c(%rbp),%xmm1
  40734a:	f3 0f 10 45 c0       	movss  -0x40(%rbp),%xmm0
  40734f:	f3 0f 59 45 d8       	mulss  -0x28(%rbp),%xmm0
  407354:	f3 0f 58 c1          	addss  %xmm1,%xmm0
  407358:	48 8b 85 78 ff ff ff 	mov    -0x88(%rbp),%rax
  40735f:	f3 0f 11 00          	movss  %xmm0,(%rax)
  407363:	48 8b 85 70 ff ff ff 	mov    -0x90(%rbp),%rax
  40736a:	f3 0f 10 45 dc       	movss  -0x24(%rbp),%xmm0
  40736f:	f3 0f 11 00          	movss  %xmm0,(%rax)
  407373:	48 8b 85 68 ff ff ff 	mov    -0x98(%rbp),%rax
  40737a:	f3 0f 10 08          	movss  (%rax),%xmm1
  40737e:	f3 0f 10 45 b8       	movss  -0x48(%rbp),%xmm0
  407383:	f3 0f 59 c1          	mulss  %xmm1,%xmm0
  407387:	f3 0f 11 45 e0       	movss  %xmm0,-0x20(%rbp)
  40738c:	48 8b 85 68 ff ff ff 	mov    -0x98(%rbp),%rax
  407393:	48 83 c0 04          	add    $0x4,%rax
  407397:	f3 0f 10 08          	movss  (%rax),%xmm1
  40739b:	f3 0f 10 45 b8       	movss  -0x48(%rbp),%xmm0
  4073a0:	f3 0f 59 c1          	mulss  %xmm1,%xmm0
  4073a4:	f3 0f 11 45 e4       	movss  %xmm0,-0x1c(%rbp)
  4073a9:	48 8b 85 68 ff ff ff 	mov    -0x98(%rbp),%rax
  4073b0:	48 83 c0 08          	add    $0x8,%rax
  4073b4:	f3 0f 10 08          	movss  (%rax),%xmm1
  4073b8:	f3 0f 10 45 b8       	movss  -0x48(%rbp),%xmm0
  4073bd:	f3 0f 59 c1          	mulss  %xmm1,%xmm0
  4073c1:	f3 0f 11 45 e8       	movss  %xmm0,-0x18(%rbp)
  4073c6:	48 8b 85 68 ff ff ff 	mov    -0x98(%rbp),%rax
  4073cd:	48 83 c0 0c          	add    $0xc,%rax
  4073d1:	f3 0f 10 08          	movss  (%rax),%xmm1
  4073d5:	f3 0f 10 45 b8       	movss  -0x48(%rbp),%xmm0
  4073da:	f3 0f 59 c1          	mulss  %xmm1,%xmm0
  4073de:	f3 0f 11 45 b8       	movss  %xmm0,-0x48(%rbp)
  4073e3:	48 8b 85 68 ff ff ff 	mov    -0x98(%rbp),%rax
  4073ea:	f3 0f 10 08          	movss  (%rax),%xmm1
  4073ee:	f3 0f 10 45 b4       	movss  -0x4c(%rbp),%xmm0
  4073f3:	f3 0f 59 c1          	mulss  %xmm1,%xmm0
  4073f7:	48 8b 85 68 ff ff ff 	mov    -0x98(%rbp),%rax
  4073fe:	f3 0f 11 00          	movss  %xmm0,(%rax)
  407402:	48 8b 85 68 ff ff ff 	mov    -0x98(%rbp),%rax
  407409:	48 83 c0 04          	add    $0x4,%rax
  40740d:	48 8b 95 68 ff ff ff 	mov    -0x98(%rbp),%rdx
  407414:	48 83 c2 04          	add    $0x4,%rdx
  407418:	f3 0f 10 0a          	movss  (%rdx),%xmm1
  40741c:	f3 0f 10 45 b4       	movss  -0x4c(%rbp),%xmm0
  407421:	f3 0f 59 c1          	mulss  %xmm1,%xmm0
  407425:	f3 0f 11 00          	movss  %xmm0,(%rax)
  407429:	48 8b 85 68 ff ff ff 	mov    -0x98(%rbp),%rax
  407430:	48 83 c0 08          	add    $0x8,%rax
  407434:	48 8b 95 68 ff ff ff 	mov    -0x98(%rbp),%rdx
  40743b:	48 83 c2 08          	add    $0x8,%rdx
  40743f:	f3 0f 10 0a          	movss  (%rdx),%xmm1
  407443:	f3 0f 10 45 b4       	movss  -0x4c(%rbp),%xmm0
  407448:	f3 0f 59 c1          	mulss  %xmm1,%xmm0
  40744c:	f3 0f 11 00          	movss  %xmm0,(%rax)
  407450:	48 8b 85 68 ff ff ff 	mov    -0x98(%rbp),%rax
  407457:	48 83 c0 0c          	add    $0xc,%rax
  40745b:	48 8b 95 68 ff ff ff 	mov    -0x98(%rbp),%rdx
  407462:	48 83 c2 0c          	add    $0xc,%rdx
  407466:	f3 0f 10 0a          	movss  (%rdx),%xmm1
  40746a:	f3 0f 10 45 b4       	movss  -0x4c(%rbp),%xmm0
  40746f:	f3 0f 59 c1          	mulss  %xmm1,%xmm0
  407473:	f3 0f 11 00          	movss  %xmm0,(%rax)
  407477:	8b 45 a4             	mov    -0x5c(%rbp),%eax
  40747a:	48 98                	cltq   
  40747c:	48 8d 14 85 00 00 00 	lea    0x0(,%rax,4),%rdx
  407483:	00 
  407484:	48 8b 85 68 ff ff ff 	mov    -0x98(%rbp),%rax
  40748b:	48 01 d0             	add    %rdx,%rax
  40748e:	8b 55 a4             	mov    -0x5c(%rbp),%edx
  407491:	48 63 d2             	movslq %edx,%rdx
  407494:	48 8d 0c 95 00 00 00 	lea    0x0(,%rdx,4),%rcx
  40749b:	00 
  40749c:	48 8b 95 68 ff ff ff 	mov    -0x98(%rbp),%rdx
  4074a3:	48 01 ca             	add    %rcx,%rdx
  4074a6:	f3 0f 10 0a          	movss  (%rdx),%xmm1
  4074aa:	f3 0f 10 45 b8       	movss  -0x48(%rbp),%xmm0
  4074af:	f3 0f 58 c1          	addss  %xmm1,%xmm0
  4074b3:	f3 0f 11 00          	movss  %xmm0,(%rax)
  4074b7:	48 8b 85 68 ff ff ff 	mov    -0x98(%rbp),%rax
  4074be:	48 8d 50 0c          	lea    0xc(%rax),%rdx
  4074c2:	48 8b 85 68 ff ff ff 	mov    -0x98(%rbp),%rax
  4074c9:	48 83 c0 0c          	add    $0xc,%rax
  4074cd:	f3 0f 10 00          	movss  (%rax),%xmm0
  4074d1:	8b 45 a4             	mov    -0x5c(%rbp),%eax
  4074d4:	48 98                	cltq   
  4074d6:	f3 0f 10 4c 85 e0    	movss  -0x20(%rbp,%rax,4),%xmm1
  4074dc:	f3 0f 5c c1          	subss  %xmm1,%xmm0
  4074e0:	f3 0f 11 02          	movss  %xmm0,(%rdx)
  4074e4:	8b 45 ac             	mov    -0x54(%rbp),%eax
  4074e7:	48 98                	cltq   
  4074e9:	48 8d 14 85 00 00 00 	lea    0x0(,%rax,4),%rdx
  4074f0:	00 
  4074f1:	48 8b 85 68 ff ff ff 	mov    -0x98(%rbp),%rax
  4074f8:	48 01 c2             	add    %rax,%rdx
  4074fb:	8b 45 ac             	mov    -0x54(%rbp),%eax
  4074fe:	48 98                	cltq   
  407500:	48 8d 0c 85 00 00 00 	lea    0x0(,%rax,4),%rcx
  407507:	00 
  407508:	48 8b 85 68 ff ff ff 	mov    -0x98(%rbp),%rax
  40750f:	48 01 c8             	add    %rcx,%rax
  407512:	f3 0f 10 08          	movss  (%rax),%xmm1
  407516:	8b 45 a8             	mov    -0x58(%rbp),%eax
  407519:	48 98                	cltq   
  40751b:	f3 0f 10 44 85 e0    	movss  -0x20(%rbp,%rax,4),%xmm0
  407521:	f3 0f 58 c1          	addss  %xmm1,%xmm0
  407525:	f3 0f 11 02          	movss  %xmm0,(%rdx)
  407529:	8b 45 a8             	mov    -0x58(%rbp),%eax
  40752c:	48 98                	cltq   
  40752e:	48 8d 14 85 00 00 00 	lea    0x0(,%rax,4),%rdx
  407535:	00 
  407536:	48 8b 85 68 ff ff ff 	mov    -0x98(%rbp),%rax
  40753d:	48 01 c2             	add    %rax,%rdx
  407540:	8b 45 a8             	mov    -0x58(%rbp),%eax
  407543:	48 98                	cltq   
  407545:	48 8d 0c 85 00 00 00 	lea    0x0(,%rax,4),%rcx
  40754c:	00 
  40754d:	48 8b 85 68 ff ff ff 	mov    -0x98(%rbp),%rax
  407554:	48 01 c8             	add    %rcx,%rax
  407557:	f3 0f 10 00          	movss  (%rax),%xmm0
  40755b:	8b 45 ac             	mov    -0x54(%rbp),%eax
  40755e:	48 98                	cltq   
  407560:	f3 0f 10 4c 85 e0    	movss  -0x20(%rbp,%rax,4),%xmm1
  407566:	f3 0f 5c c1          	subss  %xmm1,%xmm0
  40756a:	f3 0f 11 02          	movss  %xmm0,(%rdx)
  40756e:	48 8b 45 88          	mov    -0x78(%rbp),%rax
  407572:	f3 0f 10 00          	movss  (%rax),%xmm0
  407576:	f3 0f 11 45 c8       	movss  %xmm0,-0x38(%rbp)
  40757b:	48 8b 85 78 ff ff ff 	mov    -0x88(%rbp),%rax
  407582:	f3 0f 10 00          	movss  (%rax),%xmm0
  407586:	f3 0f 11 45 cc       	movss  %xmm0,-0x34(%rbp)
  40758b:	48 8b 85 70 ff ff ff 	mov    -0x90(%rbp),%rax
  407592:	f3 0f 10 00          	movss  (%rax),%xmm0
  407596:	f3 0f 11 45 d0       	movss  %xmm0,-0x30(%rbp)
  40759b:	48 8b 45 90          	mov    -0x70(%rbp),%rax
  40759f:	f3 0f 10 00          	movss  (%rax),%xmm0
  4075a3:	f3 0f 11 45 d4       	movss  %xmm0,-0x2c(%rbp)
  4075a8:	48 8b 45 80          	mov    -0x80(%rbp),%rax
  4075ac:	f3 0f 10 00          	movss  (%rax),%xmm0
  4075b0:	f3 0f 11 45 d8       	movss  %xmm0,-0x28(%rbp)
  4075b5:	48 8b 45 98          	mov    -0x68(%rbp),%rax
  4075b9:	f3 0f 10 00          	movss  (%rax),%xmm0
  4075bd:	f3 0f 11 45 dc       	movss  %xmm0,-0x24(%rbp)
  4075c2:	48 8b 45 98          	mov    -0x68(%rbp),%rax
  4075c6:	f3 0f 10 45 c8       	movss  -0x38(%rbp),%xmm0
  4075cb:	f3 0f 11 00          	movss  %xmm0,(%rax)
  4075cf:	48 8b 45 90          	mov    -0x70(%rbp),%rax
  4075d3:	f3 0f 10 45 cc       	movss  -0x34(%rbp),%xmm0
  4075d8:	f3 0f 11 00          	movss  %xmm0,(%rax)
  4075dc:	48 8b 45 88          	mov    -0x78(%rbp),%rax
  4075e0:	f3 0f 10 45 d0       	movss  -0x30(%rbp),%xmm0
  4075e5:	f3 0f 11 00          	movss  %xmm0,(%rax)
  4075e9:	48 8b 45 80          	mov    -0x80(%rbp),%rax
  4075ed:	f3 0f 10 45 d4       	movss  -0x2c(%rbp),%xmm0
  4075f2:	f3 0f 11 00          	movss  %xmm0,(%rax)
  4075f6:	48 8b 85 78 ff ff ff 	mov    -0x88(%rbp),%rax
  4075fd:	f3 0f 10 45 d8       	movss  -0x28(%rbp),%xmm0
  407602:	f3 0f 11 00          	movss  %xmm0,(%rax)
  407606:	48 8b 85 70 ff ff ff 	mov    -0x90(%rbp),%rax
  40760d:	f3 0f 10 45 dc       	movss  -0x24(%rbp),%xmm0
  407612:	f3 0f 11 00          	movss  %xmm0,(%rax)
  407616:	90                   	nop
  407617:	48 8b 45 f8          	mov    -0x8(%rbp),%rax
  40761b:	64 48 33 04 25 28 00 	xor    %fs:0x28,%rax
  407622:	00 00 
  407624:	74 05                	je     40762b <_Z17jacobiConjugationiiiRfS_S_S_S_S_Pf+0x595>
  407626:	e8 15 9b ff ff       	callq  401140 <__stack_chk_fail@plt>
  40762b:	c9                   	leaveq 
  40762c:	c3                   	retq   

000000000040762d <_Z5dist2fff>:
  40762d:	55                   	push   %rbp
  40762e:	48 89 e5             	mov    %rsp,%rbp
  407631:	f3 0f 11 45 fc       	movss  %xmm0,-0x4(%rbp)
  407636:	f3 0f 11 4d f8       	movss  %xmm1,-0x8(%rbp)
  40763b:	f3 0f 11 55 f4       	movss  %xmm2,-0xc(%rbp)
  407640:	f3 0f 10 45 fc       	movss  -0x4(%rbp),%xmm0
  407645:	0f 28 c8             	movaps %xmm0,%xmm1
  407648:	f3 0f 59 4d fc       	mulss  -0x4(%rbp),%xmm1
  40764d:	f3 0f 10 45 f8       	movss  -0x8(%rbp),%xmm0
  407652:	f3 0f 59 45 f8       	mulss  -0x8(%rbp),%xmm0
  407657:	f3 0f 58 c8          	addss  %xmm0,%xmm1
  40765b:	f3 0f 10 45 f4       	movss  -0xc(%rbp),%xmm0
  407660:	f3 0f 59 45 f4       	mulss  -0xc(%rbp),%xmm0
  407665:	f3 0f 58 c1          	addss  %xmm1,%xmm0
  407669:	5d                   	pop    %rbp
  40766a:	c3                   	retq   

000000000040766b <_Z18jacobiEigenanlysisRfS_S_S_S_S_Pf>:
  40766b:	55                   	push   %rbp
  40766c:	48 89 e5             	mov    %rsp,%rbp
  40766f:	48 83 ec 40          	sub    $0x40,%rsp
  407673:	48 89 7d e8          	mov    %rdi,-0x18(%rbp)
  407677:	48 89 75 e0          	mov    %rsi,-0x20(%rbp)
  40767b:	48 89 55 d8          	mov    %rdx,-0x28(%rbp)
  40767f:	48 89 4d d0          	mov    %rcx,-0x30(%rbp)
  407683:	4c 89 45 c8          	mov    %r8,-0x38(%rbp)
  407687:	4c 89 4d c0          	mov    %r9,-0x40(%rbp)
  40768b:	48 8b 45 10          	mov    0x10(%rbp),%rax
  40768f:	48 83 c0 0c          	add    $0xc,%rax
  407693:	f3 0f 10 05 65 0f 00 	movss  0xf65(%rip),%xmm0        # 408600 <_IO_stdin_used+0x130>
  40769a:	00 
  40769b:	f3 0f 11 00          	movss  %xmm0,(%rax)
  40769f:	48 8b 45 10          	mov    0x10(%rbp),%rax
  4076a3:	66 0f ef c0          	pxor   %xmm0,%xmm0
  4076a7:	f3 0f 11 00          	movss  %xmm0,(%rax)
  4076ab:	48 8b 45 10          	mov    0x10(%rbp),%rax
  4076af:	48 83 c0 04          	add    $0x4,%rax
  4076b3:	66 0f ef c0          	pxor   %xmm0,%xmm0
  4076b7:	f3 0f 11 00          	movss  %xmm0,(%rax)
  4076bb:	48 8b 45 10          	mov    0x10(%rbp),%rax
  4076bf:	48 83 c0 08          	add    $0x8,%rax
  4076c3:	66 0f ef c0          	pxor   %xmm0,%xmm0
  4076c7:	f3 0f 11 00          	movss  %xmm0,(%rax)
  4076cb:	c7 45 fc 00 00 00 00 	movl   $0x0,-0x4(%rbp)
  4076d2:	83 7d fc 03          	cmpl   $0x3,-0x4(%rbp)
  4076d6:	0f 8f b4 00 00 00    	jg     407790 <_Z18jacobiEigenanlysisRfS_S_S_S_S_Pf+0x125>
  4076dc:	48 8b 4d d8          	mov    -0x28(%rbp),%rcx
  4076e0:	48 8b 55 e0          	mov    -0x20(%rbp),%rdx
  4076e4:	48 8b 45 e8          	mov    -0x18(%rbp),%rax
  4076e8:	ff 75 10             	pushq  0x10(%rbp)
  4076eb:	ff 75 c0             	pushq  -0x40(%rbp)
  4076ee:	ff 75 c8             	pushq  -0x38(%rbp)
  4076f1:	ff 75 d0             	pushq  -0x30(%rbp)
  4076f4:	49 89 c9             	mov    %rcx,%r9
  4076f7:	49 89 d0             	mov    %rdx,%r8
  4076fa:	48 89 c1             	mov    %rax,%rcx
  4076fd:	ba 02 00 00 00       	mov    $0x2,%edx
  407702:	be 01 00 00 00       	mov    $0x1,%esi
  407707:	bf 00 00 00 00       	mov    $0x0,%edi
  40770c:	e8 85 f9 ff ff       	callq  407096 <_Z17jacobiConjugationiiiRfS_S_S_S_S_Pf>
  407711:	48 83 c4 20          	add    $0x20,%rsp
  407715:	48 8b 4d d8          	mov    -0x28(%rbp),%rcx
  407719:	48 8b 55 e0          	mov    -0x20(%rbp),%rdx
  40771d:	48 8b 45 e8          	mov    -0x18(%rbp),%rax
  407721:	ff 75 10             	pushq  0x10(%rbp)
  407724:	ff 75 c0             	pushq  -0x40(%rbp)
  407727:	ff 75 c8             	pushq  -0x38(%rbp)
  40772a:	ff 75 d0             	pushq  -0x30(%rbp)
  40772d:	49 89 c9             	mov    %rcx,%r9
  407730:	49 89 d0             	mov    %rdx,%r8
  407733:	48 89 c1             	mov    %rax,%rcx
  407736:	ba 00 00 00 00       	mov    $0x0,%edx
  40773b:	be 02 00 00 00       	mov    $0x2,%esi
  407740:	bf 01 00 00 00       	mov    $0x1,%edi
  407745:	e8 4c f9 ff ff       	callq  407096 <_Z17jacobiConjugationiiiRfS_S_S_S_S_Pf>
  40774a:	48 83 c4 20          	add    $0x20,%rsp
  40774e:	48 8b 4d d8          	mov    -0x28(%rbp),%rcx
  407752:	48 8b 55 e0          	mov    -0x20(%rbp),%rdx
  407756:	48 8b 45 e8          	mov    -0x18(%rbp),%rax
  40775a:	ff 75 10             	pushq  0x10(%rbp)
  40775d:	ff 75 c0             	pushq  -0x40(%rbp)
  407760:	ff 75 c8             	pushq  -0x38(%rbp)
  407763:	ff 75 d0             	pushq  -0x30(%rbp)
  407766:	49 89 c9             	mov    %rcx,%r9
  407769:	49 89 d0             	mov    %rdx,%r8
  40776c:	48 89 c1             	mov    %rax,%rcx
  40776f:	ba 01 00 00 00       	mov    $0x1,%edx
  407774:	be 00 00 00 00       	mov    $0x0,%esi
  407779:	bf 02 00 00 00       	mov    $0x2,%edi
  40777e:	e8 13 f9 ff ff       	callq  407096 <_Z17jacobiConjugationiiiRfS_S_S_S_S_Pf>
  407783:	48 83 c4 20          	add    $0x20,%rsp
  407787:	83 45 fc 01          	addl   $0x1,-0x4(%rbp)
  40778b:	e9 42 ff ff ff       	jmpq   4076d2 <_Z18jacobiEigenanlysisRfS_S_S_S_S_Pf+0x67>
  407790:	90                   	nop
  407791:	c9                   	leaveq 
  407792:	c3                   	retq   

0000000000407793 <_Z18sortSingularValuesRfS_S_S_S_S_S_S_S_S_S_S_S_S_S_S_S_S_>:
  407793:	55                   	push   %rbp
  407794:	48 89 e5             	mov    %rsp,%rbp
  407797:	48 81 ec c0 00 00 00 	sub    $0xc0,%rsp
  40779e:	48 89 7d d8          	mov    %rdi,-0x28(%rbp)
  4077a2:	48 89 75 d0          	mov    %rsi,-0x30(%rbp)
  4077a6:	48 89 55 c8          	mov    %rdx,-0x38(%rbp)
  4077aa:	48 89 4d c0          	mov    %rcx,-0x40(%rbp)
  4077ae:	4c 89 45 b8          	mov    %r8,-0x48(%rbp)
  4077b2:	4c 89 4d b0          	mov    %r9,-0x50(%rbp)
  4077b6:	48 8b 45 10          	mov    0x10(%rbp),%rax
  4077ba:	48 89 45 a8          	mov    %rax,-0x58(%rbp)
  4077be:	48 8b 45 18          	mov    0x18(%rbp),%rax
  4077c2:	48 89 45 a0          	mov    %rax,-0x60(%rbp)
  4077c6:	48 8b 45 20          	mov    0x20(%rbp),%rax
  4077ca:	48 89 45 98          	mov    %rax,-0x68(%rbp)
  4077ce:	48 8b 45 28          	mov    0x28(%rbp),%rax
  4077d2:	48 89 45 90          	mov    %rax,-0x70(%rbp)
  4077d6:	48 8b 45 30          	mov    0x30(%rbp),%rax
  4077da:	48 89 45 88          	mov    %rax,-0x78(%rbp)
  4077de:	48 8b 45 38          	mov    0x38(%rbp),%rax
  4077e2:	48 89 45 80          	mov    %rax,-0x80(%rbp)
  4077e6:	48 8b 45 40          	mov    0x40(%rbp),%rax
  4077ea:	48 89 85 78 ff ff ff 	mov    %rax,-0x88(%rbp)
  4077f1:	48 8b 45 48          	mov    0x48(%rbp),%rax
  4077f5:	48 89 85 70 ff ff ff 	mov    %rax,-0x90(%rbp)
  4077fc:	48 8b 45 50          	mov    0x50(%rbp),%rax
  407800:	48 89 85 68 ff ff ff 	mov    %rax,-0x98(%rbp)
  407807:	48 8b 45 58          	mov    0x58(%rbp),%rax
  40780b:	48 89 85 60 ff ff ff 	mov    %rax,-0xa0(%rbp)
  407812:	48 8b 45 60          	mov    0x60(%rbp),%rax
  407816:	48 89 85 58 ff ff ff 	mov    %rax,-0xa8(%rbp)
  40781d:	48 8b 45 68          	mov    0x68(%rbp),%rax
  407821:	48 89 85 50 ff ff ff 	mov    %rax,-0xb0(%rbp)
  407828:	64 48 8b 04 25 28 00 	mov    %fs:0x28,%rax
  40782f:	00 00 
  407831:	48 89 45 f8          	mov    %rax,-0x8(%rbp)
  407835:	31 c0                	xor    %eax,%eax
  407837:	48 8b 45 a8          	mov    -0x58(%rbp),%rax
  40783b:	f3 0f 10 08          	movss  (%rax),%xmm1
  40783f:	48 8b 45 c0          	mov    -0x40(%rbp),%rax
  407843:	f3 0f 10 00          	movss  (%rax),%xmm0
  407847:	48 8b 45 d8          	mov    -0x28(%rbp),%rax
  40784b:	8b 00                	mov    (%rax),%eax
  40784d:	0f 28 d1             	movaps %xmm1,%xmm2
  407850:	0f 28 c8             	movaps %xmm0,%xmm1
  407853:	89 85 4c ff ff ff    	mov    %eax,-0xb4(%rbp)
  407859:	f3 0f 10 85 4c ff ff 	movss  -0xb4(%rbp),%xmm0
  407860:	ff 
  407861:	e8 c7 fd ff ff       	callq  40762d <_Z5dist2fff>
  407866:	66 0f 7e c0          	movd   %xmm0,%eax
  40786a:	89 45 ec             	mov    %eax,-0x14(%rbp)
  40786d:	48 8b 45 a0          	mov    -0x60(%rbp),%rax
  407871:	f3 0f 10 08          	movss  (%rax),%xmm1
  407875:	48 8b 45 b8          	mov    -0x48(%rbp),%rax
  407879:	f3 0f 10 00          	movss  (%rax),%xmm0
  40787d:	48 8b 45 d0          	mov    -0x30(%rbp),%rax
  407881:	8b 00                	mov    (%rax),%eax
  407883:	0f 28 d1             	movaps %xmm1,%xmm2
  407886:	0f 28 c8             	movaps %xmm0,%xmm1
  407889:	89 85 4c ff ff ff    	mov    %eax,-0xb4(%rbp)
  40788f:	f3 0f 10 85 4c ff ff 	movss  -0xb4(%rbp),%xmm0
  407896:	ff 
  407897:	e8 91 fd ff ff       	callq  40762d <_Z5dist2fff>
  40789c:	66 0f 7e c0          	movd   %xmm0,%eax
  4078a0:	89 45 f0             	mov    %eax,-0x10(%rbp)
  4078a3:	48 8b 45 98          	mov    -0x68(%rbp),%rax
  4078a7:	f3 0f 10 08          	movss  (%rax),%xmm1
  4078ab:	48 8b 45 b0          	mov    -0x50(%rbp),%rax
  4078af:	f3 0f 10 00          	movss  (%rax),%xmm0
  4078b3:	48 8b 45 c8          	mov    -0x38(%rbp),%rax
  4078b7:	8b 00                	mov    (%rax),%eax
  4078b9:	0f 28 d1             	movaps %xmm1,%xmm2
  4078bc:	0f 28 c8             	movaps %xmm0,%xmm1
  4078bf:	89 85 4c ff ff ff    	mov    %eax,-0xb4(%rbp)
  4078c5:	f3 0f 10 85 4c ff ff 	movss  -0xb4(%rbp),%xmm0
  4078cc:	ff 
  4078cd:	e8 5b fd ff ff       	callq  40762d <_Z5dist2fff>
  4078d2:	66 0f 7e c0          	movd   %xmm0,%eax
  4078d6:	89 45 f4             	mov    %eax,-0xc(%rbp)
  4078d9:	f3 0f 10 4d ec       	movss  -0x14(%rbp),%xmm1
  4078de:	f3 0f 10 45 f0       	movss  -0x10(%rbp),%xmm0
  4078e3:	0f 2e c1             	ucomiss %xmm1,%xmm0
  4078e6:	0f 97 c0             	seta   %al
  4078e9:	88 45 eb             	mov    %al,-0x15(%rbp)
  4078ec:	0f b6 45 eb          	movzbl -0x15(%rbp),%eax
  4078f0:	48 8b 55 d0          	mov    -0x30(%rbp),%rdx
  4078f4:	48 8b 4d d8          	mov    -0x28(%rbp),%rcx
  4078f8:	48 89 ce             	mov    %rcx,%rsi
  4078fb:	89 c7                	mov    %eax,%edi
  4078fd:	e8 41 f0 ff ff       	callq  406943 <_Z11condNegSwapbRfS_>
  407902:	0f b6 45 eb          	movzbl -0x15(%rbp),%eax
  407906:	48 8b 55 88          	mov    -0x78(%rbp),%rdx
  40790a:	48 8b 4d 90          	mov    -0x70(%rbp),%rcx
  40790e:	48 89 ce             	mov    %rcx,%rsi
  407911:	89 c7                	mov    %eax,%edi
  407913:	e8 2b f0 ff ff       	callq  406943 <_Z11condNegSwapbRfS_>
  407918:	0f b6 45 eb          	movzbl -0x15(%rbp),%eax
  40791c:	48 8b 55 b8          	mov    -0x48(%rbp),%rdx
  407920:	48 8b 4d c0          	mov    -0x40(%rbp),%rcx
  407924:	48 89 ce             	mov    %rcx,%rsi
  407927:	89 c7                	mov    %eax,%edi
  407929:	e8 15 f0 ff ff       	callq  406943 <_Z11condNegSwapbRfS_>
  40792e:	0f b6 45 eb          	movzbl -0x15(%rbp),%eax
  407932:	48 8b 95 70 ff ff ff 	mov    -0x90(%rbp),%rdx
  407939:	48 8b 8d 78 ff ff ff 	mov    -0x88(%rbp),%rcx
  407940:	48 89 ce             	mov    %rcx,%rsi
  407943:	89 c7                	mov    %eax,%edi
  407945:	e8 f9 ef ff ff       	callq  406943 <_Z11condNegSwapbRfS_>
  40794a:	0f b6 45 eb          	movzbl -0x15(%rbp),%eax
  40794e:	48 8b 55 a0          	mov    -0x60(%rbp),%rdx
  407952:	48 8b 4d a8          	mov    -0x58(%rbp),%rcx
  407956:	48 89 ce             	mov    %rcx,%rsi
  407959:	89 c7                	mov    %eax,%edi
  40795b:	e8 e3 ef ff ff       	callq  406943 <_Z11condNegSwapbRfS_>
  407960:	0f b6 45 eb          	movzbl -0x15(%rbp),%eax
  407964:	48 8b 95 58 ff ff ff 	mov    -0xa8(%rbp),%rdx
  40796b:	48 8b 8d 60 ff ff ff 	mov    -0xa0(%rbp),%rcx
  407972:	48 89 ce             	mov    %rcx,%rsi
  407975:	89 c7                	mov    %eax,%edi
  407977:	e8 c7 ef ff ff       	callq  406943 <_Z11condNegSwapbRfS_>
  40797c:	0f b6 45 eb          	movzbl -0x15(%rbp),%eax
  407980:	48 8d 55 f0          	lea    -0x10(%rbp),%rdx
  407984:	48 8d 4d ec          	lea    -0x14(%rbp),%rcx
  407988:	48 89 ce             	mov    %rcx,%rsi
  40798b:	89 c7                	mov    %eax,%edi
  40798d:	e8 53 ef ff ff       	callq  4068e5 <_Z8condSwapbRfS_>
  407992:	f3 0f 10 4d ec       	movss  -0x14(%rbp),%xmm1
  407997:	f3 0f 10 45 f4       	movss  -0xc(%rbp),%xmm0
  40799c:	0f 2e c1             	ucomiss %xmm1,%xmm0
  40799f:	0f 97 c0             	seta   %al
  4079a2:	88 45 eb             	mov    %al,-0x15(%rbp)
  4079a5:	0f b6 45 eb          	movzbl -0x15(%rbp),%eax
  4079a9:	48 8b 55 c8          	mov    -0x38(%rbp),%rdx
  4079ad:	48 8b 4d d8          	mov    -0x28(%rbp),%rcx
  4079b1:	48 89 ce             	mov    %rcx,%rsi
  4079b4:	89 c7                	mov    %eax,%edi
  4079b6:	e8 88 ef ff ff       	callq  406943 <_Z11condNegSwapbRfS_>
  4079bb:	0f b6 45 eb          	movzbl -0x15(%rbp),%eax
  4079bf:	48 8b 55 80          	mov    -0x80(%rbp),%rdx
  4079c3:	48 8b 4d 90          	mov    -0x70(%rbp),%rcx
  4079c7:	48 89 ce             	mov    %rcx,%rsi
  4079ca:	89 c7                	mov    %eax,%edi
  4079cc:	e8 72 ef ff ff       	callq  406943 <_Z11condNegSwapbRfS_>
  4079d1:	0f b6 45 eb          	movzbl -0x15(%rbp),%eax
  4079d5:	48 8b 55 b0          	mov    -0x50(%rbp),%rdx
  4079d9:	48 8b 4d c0          	mov    -0x40(%rbp),%rcx
  4079dd:	48 89 ce             	mov    %rcx,%rsi
  4079e0:	89 c7                	mov    %eax,%edi
  4079e2:	e8 5c ef ff ff       	callq  406943 <_Z11condNegSwapbRfS_>
  4079e7:	0f b6 45 eb          	movzbl -0x15(%rbp),%eax
  4079eb:	48 8b 95 68 ff ff ff 	mov    -0x98(%rbp),%rdx
  4079f2:	48 8b 8d 78 ff ff ff 	mov    -0x88(%rbp),%rcx
  4079f9:	48 89 ce             	mov    %rcx,%rsi
  4079fc:	89 c7                	mov    %eax,%edi
  4079fe:	e8 40 ef ff ff       	callq  406943 <_Z11condNegSwapbRfS_>
  407a03:	0f b6 45 eb          	movzbl -0x15(%rbp),%eax
  407a07:	48 8b 55 98          	mov    -0x68(%rbp),%rdx
  407a0b:	48 8b 4d a8          	mov    -0x58(%rbp),%rcx
  407a0f:	48 89 ce             	mov    %rcx,%rsi
  407a12:	89 c7                	mov    %eax,%edi
  407a14:	e8 2a ef ff ff       	callq  406943 <_Z11condNegSwapbRfS_>
  407a19:	0f b6 45 eb          	movzbl -0x15(%rbp),%eax
  407a1d:	48 8b 95 50 ff ff ff 	mov    -0xb0(%rbp),%rdx
  407a24:	48 8b 8d 60 ff ff ff 	mov    -0xa0(%rbp),%rcx
  407a2b:	48 89 ce             	mov    %rcx,%rsi
  407a2e:	89 c7                	mov    %eax,%edi
  407a30:	e8 0e ef ff ff       	callq  406943 <_Z11condNegSwapbRfS_>
  407a35:	0f b6 45 eb          	movzbl -0x15(%rbp),%eax
  407a39:	48 8d 55 f4          	lea    -0xc(%rbp),%rdx
  407a3d:	48 8d 4d ec          	lea    -0x14(%rbp),%rcx
  407a41:	48 89 ce             	mov    %rcx,%rsi
  407a44:	89 c7                	mov    %eax,%edi
  407a46:	e8 9a ee ff ff       	callq  4068e5 <_Z8condSwapbRfS_>
  407a4b:	f3 0f 10 4d f0       	movss  -0x10(%rbp),%xmm1
  407a50:	f3 0f 10 45 f4       	movss  -0xc(%rbp),%xmm0
  407a55:	0f 2e c1             	ucomiss %xmm1,%xmm0
  407a58:	0f 97 c0             	seta   %al
  407a5b:	88 45 eb             	mov    %al,-0x15(%rbp)
  407a5e:	0f b6 45 eb          	movzbl -0x15(%rbp),%eax
  407a62:	48 8b 55 c8          	mov    -0x38(%rbp),%rdx
  407a66:	48 8b 4d d0          	mov    -0x30(%rbp),%rcx
  407a6a:	48 89 ce             	mov    %rcx,%rsi
  407a6d:	89 c7                	mov    %eax,%edi
  407a6f:	e8 cf ee ff ff       	callq  406943 <_Z11condNegSwapbRfS_>
  407a74:	0f b6 45 eb          	movzbl -0x15(%rbp),%eax
  407a78:	48 8b 55 80          	mov    -0x80(%rbp),%rdx
  407a7c:	48 8b 4d 88          	mov    -0x78(%rbp),%rcx
  407a80:	48 89 ce             	mov    %rcx,%rsi
  407a83:	89 c7                	mov    %eax,%edi
  407a85:	e8 b9 ee ff ff       	callq  406943 <_Z11condNegSwapbRfS_>
  407a8a:	0f b6 45 eb          	movzbl -0x15(%rbp),%eax
  407a8e:	48 8b 55 b0          	mov    -0x50(%rbp),%rdx
  407a92:	48 8b 4d b8          	mov    -0x48(%rbp),%rcx
  407a96:	48 89 ce             	mov    %rcx,%rsi
  407a99:	89 c7                	mov    %eax,%edi
  407a9b:	e8 a3 ee ff ff       	callq  406943 <_Z11condNegSwapbRfS_>
  407aa0:	0f b6 45 eb          	movzbl -0x15(%rbp),%eax
  407aa4:	48 8b 95 68 ff ff ff 	mov    -0x98(%rbp),%rdx
  407aab:	48 8b 8d 70 ff ff ff 	mov    -0x90(%rbp),%rcx
  407ab2:	48 89 ce             	mov    %rcx,%rsi
  407ab5:	89 c7                	mov    %eax,%edi
  407ab7:	e8 87 ee ff ff       	callq  406943 <_Z11condNegSwapbRfS_>
  407abc:	0f b6 45 eb          	movzbl -0x15(%rbp),%eax
  407ac0:	48 8b 55 98          	mov    -0x68(%rbp),%rdx
  407ac4:	48 8b 4d a0          	mov    -0x60(%rbp),%rcx
  407ac8:	48 89 ce             	mov    %rcx,%rsi
  407acb:	89 c7                	mov    %eax,%edi
  407acd:	e8 71 ee ff ff       	callq  406943 <_Z11condNegSwapbRfS_>
  407ad2:	0f b6 45 eb          	movzbl -0x15(%rbp),%eax
  407ad6:	48 8b 95 50 ff ff ff 	mov    -0xb0(%rbp),%rdx
  407add:	48 8b 8d 58 ff ff ff 	mov    -0xa8(%rbp),%rcx
  407ae4:	48 89 ce             	mov    %rcx,%rsi
  407ae7:	89 c7                	mov    %eax,%edi
  407ae9:	e8 55 ee ff ff       	callq  406943 <_Z11condNegSwapbRfS_>
  407aee:	90                   	nop
  407aef:	48 8b 45 f8          	mov    -0x8(%rbp),%rax
  407af3:	64 48 33 04 25 28 00 	xor    %fs:0x28,%rax
  407afa:	00 00 
  407afc:	74 05                	je     407b03 <_Z18sortSingularValuesRfS_S_S_S_S_S_S_S_S_S_S_S_S_S_S_S_S_+0x370>
  407afe:	e8 3d 96 ff ff       	callq  401140 <__stack_chk_fail@plt>
  407b03:	c9                   	leaveq 
  407b04:	c3                   	retq   

0000000000407b05 <_Z15QRDecompositionfffffffffRfS_S_S_S_S_S_S_S_S_S_S_S_S_S_S_S_S_>:
  407b05:	55                   	push   %rbp
  407b06:	48 89 e5             	mov    %rsp,%rbp
  407b09:	48 81 ec 00 01 00 00 	sub    $0x100,%rsp
  407b10:	f3 0f 11 45 bc       	movss  %xmm0,-0x44(%rbp)
  407b15:	f3 0f 11 4d b8       	movss  %xmm1,-0x48(%rbp)
  407b1a:	f3 0f 11 55 b4       	movss  %xmm2,-0x4c(%rbp)
  407b1f:	f3 0f 11 5d b0       	movss  %xmm3,-0x50(%rbp)
  407b24:	f3 0f 11 65 ac       	movss  %xmm4,-0x54(%rbp)
  407b29:	f3 0f 11 6d a8       	movss  %xmm5,-0x58(%rbp)
  407b2e:	f3 0f 11 75 a4       	movss  %xmm6,-0x5c(%rbp)
  407b33:	f3 0f 11 7d a0       	movss  %xmm7,-0x60(%rbp)
  407b38:	48 89 7d 98          	mov    %rdi,-0x68(%rbp)
  407b3c:	48 89 75 90          	mov    %rsi,-0x70(%rbp)
  407b40:	48 89 55 88          	mov    %rdx,-0x78(%rbp)
  407b44:	48 89 4d 80          	mov    %rcx,-0x80(%rbp)
  407b48:	4c 89 85 78 ff ff ff 	mov    %r8,-0x88(%rbp)
  407b4f:	4c 89 8d 70 ff ff ff 	mov    %r9,-0x90(%rbp)
  407b56:	48 8b 45 18          	mov    0x18(%rbp),%rax
  407b5a:	48 89 85 68 ff ff ff 	mov    %rax,-0x98(%rbp)
  407b61:	48 8b 45 20          	mov    0x20(%rbp),%rax
  407b65:	48 89 85 60 ff ff ff 	mov    %rax,-0xa0(%rbp)
  407b6c:	48 8b 45 28          	mov    0x28(%rbp),%rax
  407b70:	48 89 85 58 ff ff ff 	mov    %rax,-0xa8(%rbp)
  407b77:	48 8b 45 30          	mov    0x30(%rbp),%rax
  407b7b:	48 89 85 50 ff ff ff 	mov    %rax,-0xb0(%rbp)
  407b82:	48 8b 45 38          	mov    0x38(%rbp),%rax
  407b86:	48 89 85 48 ff ff ff 	mov    %rax,-0xb8(%rbp)
  407b8d:	48 8b 45 40          	mov    0x40(%rbp),%rax
  407b91:	48 89 85 40 ff ff ff 	mov    %rax,-0xc0(%rbp)
  407b98:	48 8b 45 48          	mov    0x48(%rbp),%rax
  407b9c:	48 89 85 38 ff ff ff 	mov    %rax,-0xc8(%rbp)
  407ba3:	48 8b 45 50          	mov    0x50(%rbp),%rax
  407ba7:	48 89 85 30 ff ff ff 	mov    %rax,-0xd0(%rbp)
  407bae:	48 8b 45 58          	mov    0x58(%rbp),%rax
  407bb2:	48 89 85 28 ff ff ff 	mov    %rax,-0xd8(%rbp)
  407bb9:	48 8b 45 60          	mov    0x60(%rbp),%rax
  407bbd:	48 89 85 20 ff ff ff 	mov    %rax,-0xe0(%rbp)
  407bc4:	48 8b 45 68          	mov    0x68(%rbp),%rax
  407bc8:	48 89 85 18 ff ff ff 	mov    %rax,-0xe8(%rbp)
  407bcf:	48 8b 45 70          	mov    0x70(%rbp),%rax
  407bd3:	48 89 85 10 ff ff ff 	mov    %rax,-0xf0(%rbp)
  407bda:	64 48 8b 04 25 28 00 	mov    %fs:0x28,%rax
  407be1:	00 00 
  407be3:	48 89 45 f8          	mov    %rax,-0x8(%rbp)
  407be7:	31 c0                	xor    %eax,%eax
  407be9:	48 8d 4d d0          	lea    -0x30(%rbp),%rcx
  407bed:	48 8d 55 cc          	lea    -0x34(%rbp),%rdx
  407bf1:	f3 0f 10 45 b0       	movss  -0x50(%rbp),%xmm0
  407bf6:	8b 45 bc             	mov    -0x44(%rbp),%eax
  407bf9:	48 89 ce             	mov    %rcx,%rsi
  407bfc:	48 89 d7             	mov    %rdx,%rdi
  407bff:	0f 28 c8             	movaps %xmm0,%xmm1
  407c02:	89 85 0c ff ff ff    	mov    %eax,-0xf4(%rbp)
  407c08:	f3 0f 10 85 0c ff ff 	movss  -0xf4(%rbp),%xmm0
  407c0f:	ff 
  407c10:	e8 24 da ff ff       	callq  405639 <_Z18QRGivensQuaternionffRfS_>
  407c15:	f3 0f 10 45 d0       	movss  -0x30(%rbp),%xmm0
  407c1a:	f3 0f 58 c0          	addss  %xmm0,%xmm0
  407c1e:	f3 0f 10 4d d0       	movss  -0x30(%rbp),%xmm1
  407c23:	f3 0f 59 c1          	mulss  %xmm1,%xmm0
  407c27:	f3 0f 10 0d d1 09 00 	movss  0x9d1(%rip),%xmm1        # 408600 <_IO_stdin_used+0x130>
  407c2e:	00 
  407c2f:	f3 0f 5c c8          	subss  %xmm0,%xmm1
  407c33:	0f 28 c1             	movaps %xmm1,%xmm0
  407c36:	f3 0f 11 45 e4       	movss  %xmm0,-0x1c(%rbp)
  407c3b:	f3 0f 10 45 cc       	movss  -0x34(%rbp),%xmm0
  407c40:	f3 0f 58 c0          	addss  %xmm0,%xmm0
  407c44:	f3 0f 10 4d d0       	movss  -0x30(%rbp),%xmm1
  407c49:	f3 0f 59 c1          	mulss  %xmm1,%xmm0
  407c4d:	f3 0f 11 45 e8       	movss  %xmm0,-0x18(%rbp)
  407c52:	f3 0f 10 45 e4       	movss  -0x1c(%rbp),%xmm0
  407c57:	0f 28 c8             	movaps %xmm0,%xmm1
  407c5a:	f3 0f 59 4d bc       	mulss  -0x44(%rbp),%xmm1
  407c5f:	f3 0f 10 45 e8       	movss  -0x18(%rbp),%xmm0
  407c64:	f3 0f 59 45 b0       	mulss  -0x50(%rbp),%xmm0
  407c69:	f3 0f 58 c1          	addss  %xmm1,%xmm0
  407c6d:	48 8b 85 50 ff ff ff 	mov    -0xb0(%rbp),%rax
  407c74:	f3 0f 11 00          	movss  %xmm0,(%rax)
  407c78:	f3 0f 10 45 e4       	movss  -0x1c(%rbp),%xmm0
  407c7d:	0f 28 c8             	movaps %xmm0,%xmm1
  407c80:	f3 0f 59 4d b8       	mulss  -0x48(%rbp),%xmm1
  407c85:	f3 0f 10 45 e8       	movss  -0x18(%rbp),%xmm0
  407c8a:	f3 0f 59 45 ac       	mulss  -0x54(%rbp),%xmm0
  407c8f:	f3 0f 58 c1          	addss  %xmm1,%xmm0
  407c93:	48 8b 85 48 ff ff ff 	mov    -0xb8(%rbp),%rax
  407c9a:	f3 0f 11 00          	movss  %xmm0,(%rax)
  407c9e:	f3 0f 10 45 e4       	movss  -0x1c(%rbp),%xmm0
  407ca3:	0f 28 c8             	movaps %xmm0,%xmm1
  407ca6:	f3 0f 59 4d b4       	mulss  -0x4c(%rbp),%xmm1
  407cab:	f3 0f 10 45 e8       	movss  -0x18(%rbp),%xmm0
  407cb0:	f3 0f 59 45 a8       	mulss  -0x58(%rbp),%xmm0
  407cb5:	f3 0f 58 c1          	addss  %xmm1,%xmm0
  407cb9:	48 8b 85 40 ff ff ff 	mov    -0xc0(%rbp),%rax
  407cc0:	f3 0f 11 00          	movss  %xmm0,(%rax)
  407cc4:	f3 0f 10 4d e8       	movss  -0x18(%rbp),%xmm1
  407cc9:	f3 0f 10 05 1f 09 00 	movss  0x91f(%rip),%xmm0        # 4085f0 <_IO_stdin_used+0x120>
  407cd0:	00 
  407cd1:	0f 57 c1             	xorps  %xmm1,%xmm0
  407cd4:	0f 28 c8             	movaps %xmm0,%xmm1
  407cd7:	f3 0f 59 4d bc       	mulss  -0x44(%rbp),%xmm1
  407cdc:	f3 0f 10 45 e4       	movss  -0x1c(%rbp),%xmm0
  407ce1:	f3 0f 59 45 b0       	mulss  -0x50(%rbp),%xmm0
  407ce6:	f3 0f 58 c1          	addss  %xmm1,%xmm0
  407cea:	48 8b 85 38 ff ff ff 	mov    -0xc8(%rbp),%rax
  407cf1:	f3 0f 11 00          	movss  %xmm0,(%rax)
  407cf5:	f3 0f 10 4d e8       	movss  -0x18(%rbp),%xmm1
  407cfa:	f3 0f 10 05 ee 08 00 	movss  0x8ee(%rip),%xmm0        # 4085f0 <_IO_stdin_used+0x120>
  407d01:	00 
  407d02:	0f 57 c1             	xorps  %xmm1,%xmm0
  407d05:	0f 28 c8             	movaps %xmm0,%xmm1
  407d08:	f3 0f 59 4d b8       	mulss  -0x48(%rbp),%xmm1
  407d0d:	f3 0f 10 45 e4       	movss  -0x1c(%rbp),%xmm0
  407d12:	f3 0f 59 45 ac       	mulss  -0x54(%rbp),%xmm0
  407d17:	f3 0f 58 c1          	addss  %xmm1,%xmm0
  407d1b:	48 8b 85 30 ff ff ff 	mov    -0xd0(%rbp),%rax
  407d22:	f3 0f 11 00          	movss  %xmm0,(%rax)
  407d26:	f3 0f 10 4d e8       	movss  -0x18(%rbp),%xmm1
  407d2b:	f3 0f 10 05 bd 08 00 	movss  0x8bd(%rip),%xmm0        # 4085f0 <_IO_stdin_used+0x120>
  407d32:	00 
  407d33:	0f 57 c1             	xorps  %xmm1,%xmm0
  407d36:	0f 28 c8             	movaps %xmm0,%xmm1
  407d39:	f3 0f 59 4d b4       	mulss  -0x4c(%rbp),%xmm1
  407d3e:	f3 0f 10 45 e4       	movss  -0x1c(%rbp),%xmm0
  407d43:	f3 0f 59 45 a8       	mulss  -0x58(%rbp),%xmm0
  407d48:	f3 0f 58 c1          	addss  %xmm1,%xmm0
  407d4c:	48 8b 85 28 ff ff ff 	mov    -0xd8(%rbp),%rax
  407d53:	f3 0f 11 00          	movss  %xmm0,(%rax)
  407d57:	48 8b 85 20 ff ff ff 	mov    -0xe0(%rbp),%rax
  407d5e:	f3 0f 10 45 a4       	movss  -0x5c(%rbp),%xmm0
  407d63:	f3 0f 11 00          	movss  %xmm0,(%rax)
  407d67:	48 8b 85 18 ff ff ff 	mov    -0xe8(%rbp),%rax
  407d6e:	f3 0f 10 45 a0       	movss  -0x60(%rbp),%xmm0
  407d73:	f3 0f 11 00          	movss  %xmm0,(%rax)
  407d77:	48 8b 85 10 ff ff ff 	mov    -0xf0(%rbp),%rax
  407d7e:	f3 0f 10 45 10       	movss  0x10(%rbp),%xmm0
  407d83:	f3 0f 11 00          	movss  %xmm0,(%rax)
  407d87:	48 8b 85 20 ff ff ff 	mov    -0xe0(%rbp),%rax
  407d8e:	f3 0f 10 00          	movss  (%rax),%xmm0
  407d92:	48 8b 85 50 ff ff ff 	mov    -0xb0(%rbp),%rax
  407d99:	8b 00                	mov    (%rax),%eax
  407d9b:	48 8d 4d d8          	lea    -0x28(%rbp),%rcx
  407d9f:	48 8d 55 d4          	lea    -0x2c(%rbp),%rdx
  407da3:	48 89 ce             	mov    %rcx,%rsi
  407da6:	48 89 d7             	mov    %rdx,%rdi
  407da9:	0f 28 c8             	movaps %xmm0,%xmm1
  407dac:	89 85 0c ff ff ff    	mov    %eax,-0xf4(%rbp)
  407db2:	f3 0f 10 85 0c ff ff 	movss  -0xf4(%rbp),%xmm0
  407db9:	ff 
  407dba:	e8 7a d8 ff ff       	callq  405639 <_Z18QRGivensQuaternionffRfS_>
  407dbf:	f3 0f 10 45 d8       	movss  -0x28(%rbp),%xmm0
  407dc4:	f3 0f 58 c0          	addss  %xmm0,%xmm0
  407dc8:	f3 0f 10 4d d8       	movss  -0x28(%rbp),%xmm1
  407dcd:	f3 0f 59 c1          	mulss  %xmm1,%xmm0
  407dd1:	f3 0f 10 0d 27 08 00 	movss  0x827(%rip),%xmm1        # 408600 <_IO_stdin_used+0x130>
  407dd8:	00 
  407dd9:	f3 0f 5c c8          	subss  %xmm0,%xmm1
  407ddd:	0f 28 c1             	movaps %xmm1,%xmm0
  407de0:	f3 0f 11 45 e4       	movss  %xmm0,-0x1c(%rbp)
  407de5:	f3 0f 10 45 d4       	movss  -0x2c(%rbp),%xmm0
  407dea:	f3 0f 58 c0          	addss  %xmm0,%xmm0
  407dee:	f3 0f 10 4d d8       	movss  -0x28(%rbp),%xmm1
  407df3:	f3 0f 59 c1          	mulss  %xmm1,%xmm0
  407df7:	f3 0f 11 45 e8       	movss  %xmm0,-0x18(%rbp)
  407dfc:	48 8b 85 50 ff ff ff 	mov    -0xb0(%rbp),%rax
  407e03:	f3 0f 10 00          	movss  (%rax),%xmm0
  407e07:	0f 28 c8             	movaps %xmm0,%xmm1
  407e0a:	f3 0f 59 4d e4       	mulss  -0x1c(%rbp),%xmm1
  407e0f:	48 8b 85 20 ff ff ff 	mov    -0xe0(%rbp),%rax
  407e16:	f3 0f 10 00          	movss  (%rax),%xmm0
  407e1a:	f3 0f 59 45 e8       	mulss  -0x18(%rbp),%xmm0
  407e1f:	f3 0f 58 c1          	addss  %xmm1,%xmm0
  407e23:	f3 0f 11 45 bc       	movss  %xmm0,-0x44(%rbp)
  407e28:	48 8b 85 48 ff ff ff 	mov    -0xb8(%rbp),%rax
  407e2f:	f3 0f 10 00          	movss  (%rax),%xmm0
  407e33:	0f 28 c8             	movaps %xmm0,%xmm1
  407e36:	f3 0f 59 4d e4       	mulss  -0x1c(%rbp),%xmm1
  407e3b:	48 8b 85 18 ff ff ff 	mov    -0xe8(%rbp),%rax
  407e42:	f3 0f 10 00          	movss  (%rax),%xmm0
  407e46:	f3 0f 59 45 e8       	mulss  -0x18(%rbp),%xmm0
  407e4b:	f3 0f 58 c1          	addss  %xmm1,%xmm0
  407e4f:	f3 0f 11 45 b8       	movss  %xmm0,-0x48(%rbp)
  407e54:	48 8b 85 40 ff ff ff 	mov    -0xc0(%rbp),%rax
  407e5b:	f3 0f 10 00          	movss  (%rax),%xmm0
  407e5f:	0f 28 c8             	movaps %xmm0,%xmm1
  407e62:	f3 0f 59 4d e4       	mulss  -0x1c(%rbp),%xmm1
  407e67:	48 8b 85 10 ff ff ff 	mov    -0xf0(%rbp),%rax
  407e6e:	f3 0f 10 00          	movss  (%rax),%xmm0
  407e72:	f3 0f 59 45 e8       	mulss  -0x18(%rbp),%xmm0
  407e77:	f3 0f 58 c1          	addss  %xmm1,%xmm0
  407e7b:	f3 0f 11 45 b4       	movss  %xmm0,-0x4c(%rbp)
  407e80:	48 8b 85 38 ff ff ff 	mov    -0xc8(%rbp),%rax
  407e87:	f3 0f 10 00          	movss  (%rax),%xmm0
  407e8b:	f3 0f 11 45 b0       	movss  %xmm0,-0x50(%rbp)
  407e90:	48 8b 85 30 ff ff ff 	mov    -0xd0(%rbp),%rax
  407e97:	f3 0f 10 00          	movss  (%rax),%xmm0
  407e9b:	f3 0f 11 45 ac       	movss  %xmm0,-0x54(%rbp)
  407ea0:	48 8b 85 28 ff ff ff 	mov    -0xd8(%rbp),%rax
  407ea7:	f3 0f 10 00          	movss  (%rax),%xmm0
  407eab:	f3 0f 11 45 a8       	movss  %xmm0,-0x58(%rbp)
  407eb0:	f3 0f 10 4d e8       	movss  -0x18(%rbp),%xmm1
  407eb5:	f3 0f 10 05 33 07 00 	movss  0x733(%rip),%xmm0        # 4085f0 <_IO_stdin_used+0x120>
  407ebc:	00 
  407ebd:	0f 57 c1             	xorps  %xmm1,%xmm0
  407ec0:	48 8b 85 50 ff ff ff 	mov    -0xb0(%rbp),%rax
  407ec7:	f3 0f 10 08          	movss  (%rax),%xmm1
  407ecb:	f3 0f 59 c8          	mulss  %xmm0,%xmm1
  407ecf:	48 8b 85 20 ff ff ff 	mov    -0xe0(%rbp),%rax
  407ed6:	f3 0f 10 00          	movss  (%rax),%xmm0
  407eda:	f3 0f 59 45 e4       	mulss  -0x1c(%rbp),%xmm0
  407edf:	f3 0f 58 c1          	addss  %xmm1,%xmm0
  407ee3:	f3 0f 11 45 a4       	movss  %xmm0,-0x5c(%rbp)
  407ee8:	f3 0f 10 4d e8       	movss  -0x18(%rbp),%xmm1
  407eed:	f3 0f 10 05 fb 06 00 	movss  0x6fb(%rip),%xmm0        # 4085f0 <_IO_stdin_used+0x120>
  407ef4:	00 
  407ef5:	0f 57 c1             	xorps  %xmm1,%xmm0
  407ef8:	48 8b 85 48 ff ff ff 	mov    -0xb8(%rbp),%rax
  407eff:	f3 0f 10 08          	movss  (%rax),%xmm1
  407f03:	f3 0f 59 c8          	mulss  %xmm0,%xmm1
  407f07:	48 8b 85 18 ff ff ff 	mov    -0xe8(%rbp),%rax
  407f0e:	f3 0f 10 00          	movss  (%rax),%xmm0
  407f12:	f3 0f 59 45 e4       	mulss  -0x1c(%rbp),%xmm0
  407f17:	f3 0f 58 c1          	addss  %xmm1,%xmm0
  407f1b:	f3 0f 11 45 a0       	movss  %xmm0,-0x60(%rbp)
  407f20:	f3 0f 10 4d e8       	movss  -0x18(%rbp),%xmm1
  407f25:	f3 0f 10 05 c3 06 00 	movss  0x6c3(%rip),%xmm0        # 4085f0 <_IO_stdin_used+0x120>
  407f2c:	00 
  407f2d:	0f 57 c1             	xorps  %xmm1,%xmm0
  407f30:	48 8b 85 40 ff ff ff 	mov    -0xc0(%rbp),%rax
  407f37:	f3 0f 10 08          	movss  (%rax),%xmm1
  407f3b:	f3 0f 59 c8          	mulss  %xmm0,%xmm1
  407f3f:	48 8b 85 10 ff ff ff 	mov    -0xf0(%rbp),%rax
  407f46:	f3 0f 10 00          	movss  (%rax),%xmm0
  407f4a:	f3 0f 59 45 e4       	mulss  -0x1c(%rbp),%xmm0
  407f4f:	f3 0f 58 c1          	addss  %xmm1,%xmm0
  407f53:	f3 0f 11 45 10       	movss  %xmm0,0x10(%rbp)
  407f58:	48 8d 4d e0          	lea    -0x20(%rbp),%rcx
  407f5c:	48 8d 55 dc          	lea    -0x24(%rbp),%rdx
  407f60:	f3 0f 10 45 a0       	movss  -0x60(%rbp),%xmm0
  407f65:	8b 45 ac             	mov    -0x54(%rbp),%eax
  407f68:	48 89 ce             	mov    %rcx,%rsi
  407f6b:	48 89 d7             	mov    %rdx,%rdi
  407f6e:	0f 28 c8             	movaps %xmm0,%xmm1
  407f71:	89 85 0c ff ff ff    	mov    %eax,-0xf4(%rbp)
  407f77:	f3 0f 10 85 0c ff ff 	movss  -0xf4(%rbp),%xmm0
  407f7e:	ff 
  407f7f:	e8 b5 d6 ff ff       	callq  405639 <_Z18QRGivensQuaternionffRfS_>
  407f84:	f3 0f 10 45 e0       	movss  -0x20(%rbp),%xmm0
  407f89:	f3 0f 58 c0          	addss  %xmm0,%xmm0
  407f8d:	f3 0f 10 4d e0       	movss  -0x20(%rbp),%xmm1
  407f92:	f3 0f 59 c1          	mulss  %xmm1,%xmm0
  407f96:	f3 0f 10 0d 62 06 00 	movss  0x662(%rip),%xmm1        # 408600 <_IO_stdin_used+0x130>
  407f9d:	00 
  407f9e:	f3 0f 5c c8          	subss  %xmm0,%xmm1
  407fa2:	0f 28 c1             	movaps %xmm1,%xmm0
  407fa5:	f3 0f 11 45 e4       	movss  %xmm0,-0x1c(%rbp)
  407faa:	f3 0f 10 45 dc       	movss  -0x24(%rbp),%xmm0
  407faf:	f3 0f 58 c0          	addss  %xmm0,%xmm0
  407fb3:	f3 0f 10 4d e0       	movss  -0x20(%rbp),%xmm1
  407fb8:	f3 0f 59 c1          	mulss  %xmm1,%xmm0
  407fbc:	f3 0f 11 45 e8       	movss  %xmm0,-0x18(%rbp)
  407fc1:	48 8b 85 50 ff ff ff 	mov    -0xb0(%rbp),%rax
  407fc8:	f3 0f 10 45 bc       	movss  -0x44(%rbp),%xmm0
  407fcd:	f3 0f 11 00          	movss  %xmm0,(%rax)
  407fd1:	48 8b 85 48 ff ff ff 	mov    -0xb8(%rbp),%rax
  407fd8:	f3 0f 10 45 b8       	movss  -0x48(%rbp),%xmm0
  407fdd:	f3 0f 11 00          	movss  %xmm0,(%rax)
  407fe1:	48 8b 85 40 ff ff ff 	mov    -0xc0(%rbp),%rax
  407fe8:	f3 0f 10 45 b4       	movss  -0x4c(%rbp),%xmm0
  407fed:	f3 0f 11 00          	movss  %xmm0,(%rax)
  407ff1:	f3 0f 10 45 e4       	movss  -0x1c(%rbp),%xmm0
  407ff6:	0f 28 c8             	movaps %xmm0,%xmm1
  407ff9:	f3 0f 59 4d b0       	mulss  -0x50(%rbp),%xmm1
  407ffe:	f3 0f 10 45 e8       	movss  -0x18(%rbp),%xmm0
  408003:	f3 0f 59 45 a4       	mulss  -0x5c(%rbp),%xmm0
  408008:	f3 0f 58 c1          	addss  %xmm1,%xmm0
  40800c:	48 8b 85 38 ff ff ff 	mov    -0xc8(%rbp),%rax
  408013:	f3 0f 11 00          	movss  %xmm0,(%rax)
  408017:	f3 0f 10 45 e4       	movss  -0x1c(%rbp),%xmm0
  40801c:	0f 28 c8             	movaps %xmm0,%xmm1
  40801f:	f3 0f 59 4d ac       	mulss  -0x54(%rbp),%xmm1
  408024:	f3 0f 10 45 e8       	movss  -0x18(%rbp),%xmm0
  408029:	f3 0f 59 45 a0       	mulss  -0x60(%rbp),%xmm0
  40802e:	f3 0f 58 c1          	addss  %xmm1,%xmm0
  408032:	48 8b 85 30 ff ff ff 	mov    -0xd0(%rbp),%rax
  408039:	f3 0f 11 00          	movss  %xmm0,(%rax)
  40803d:	f3 0f 10 45 e4       	movss  -0x1c(%rbp),%xmm0
  408042:	0f 28 c8             	movaps %xmm0,%xmm1
  408045:	f3 0f 59 4d a8       	mulss  -0x58(%rbp),%xmm1
  40804a:	f3 0f 10 45 e8       	movss  -0x18(%rbp),%xmm0
  40804f:	f3 0f 59 45 10       	mulss  0x10(%rbp),%xmm0
  408054:	f3 0f 58 c1          	addss  %xmm1,%xmm0
  408058:	48 8b 85 28 ff ff ff 	mov    -0xd8(%rbp),%rax
  40805f:	f3 0f 11 00          	movss  %xmm0,(%rax)
  408063:	f3 0f 10 4d e8       	movss  -0x18(%rbp),%xmm1
  408068:	f3 0f 10 05 80 05 00 	movss  0x580(%rip),%xmm0        # 4085f0 <_IO_stdin_used+0x120>
  40806f:	00 
  408070:	0f 57 c1             	xorps  %xmm1,%xmm0
  408073:	0f 28 c8             	movaps %xmm0,%xmm1
  408076:	f3 0f 59 4d b0       	mulss  -0x50(%rbp),%xmm1
  40807b:	f3 0f 10 45 e4       	movss  -0x1c(%rbp),%xmm0
  408080:	f3 0f 59 45 a4       	mulss  -0x5c(%rbp),%xmm0
  408085:	f3 0f 58 c1          	addss  %xmm1,%xmm0
  408089:	48 8b 85 20 ff ff ff 	mov    -0xe0(%rbp),%rax
  408090:	f3 0f 11 00          	movss  %xmm0,(%rax)
  408094:	f3 0f 10 4d e8       	movss  -0x18(%rbp),%xmm1
  408099:	f3 0f 10 05 4f 05 00 	movss  0x54f(%rip),%xmm0        # 4085f0 <_IO_stdin_used+0x120>
  4080a0:	00 
  4080a1:	0f 57 c1             	xorps  %xmm1,%xmm0
  4080a4:	0f 28 c8             	movaps %xmm0,%xmm1
  4080a7:	f3 0f 59 4d ac       	mulss  -0x54(%rbp),%xmm1
  4080ac:	f3 0f 10 45 e4       	movss  -0x1c(%rbp),%xmm0
  4080b1:	f3 0f 59 45 a0       	mulss  -0x60(%rbp),%xmm0
  4080b6:	f3 0f 58 c1          	addss  %xmm1,%xmm0
  4080ba:	48 8b 85 18 ff ff ff 	mov    -0xe8(%rbp),%rax
  4080c1:	f3 0f 11 00          	movss  %xmm0,(%rax)
  4080c5:	f3 0f 10 4d e8       	movss  -0x18(%rbp),%xmm1
  4080ca:	f3 0f 10 05 1e 05 00 	movss  0x51e(%rip),%xmm0        # 4085f0 <_IO_stdin_used+0x120>
  4080d1:	00 
  4080d2:	0f 57 c1             	xorps  %xmm1,%xmm0
  4080d5:	0f 28 c8             	movaps %xmm0,%xmm1
  4080d8:	f3 0f 59 4d a8       	mulss  -0x58(%rbp),%xmm1
  4080dd:	f3 0f 10 45 e4       	movss  -0x1c(%rbp),%xmm0
  4080e2:	f3 0f 59 45 10       	mulss  0x10(%rbp),%xmm0
  4080e7:	f3 0f 58 c1          	addss  %xmm1,%xmm0
  4080eb:	48 8b 85 10 ff ff ff 	mov    -0xf0(%rbp),%rax
  4080f2:	f3 0f 11 00          	movss  %xmm0,(%rax)
  4080f6:	f3 0f 10 4d d0       	movss  -0x30(%rbp),%xmm1
  4080fb:	f3 0f 10 45 d0       	movss  -0x30(%rbp),%xmm0
  408100:	f3 0f 59 c1          	mulss  %xmm1,%xmm0
  408104:	f3 0f 11 45 ec       	movss  %xmm0,-0x14(%rbp)
  408109:	f3 0f 10 4d d8       	movss  -0x28(%rbp),%xmm1
  40810e:	f3 0f 10 45 d8       	movss  -0x28(%rbp),%xmm0
  408113:	f3 0f 59 c1          	mulss  %xmm1,%xmm0
  408117:	f3 0f 11 45 f0       	movss  %xmm0,-0x10(%rbp)
  40811c:	f3 0f 10 4d e0       	movss  -0x20(%rbp),%xmm1
  408121:	f3 0f 10 45 e0       	movss  -0x20(%rbp),%xmm0
  408126:	f3 0f 59 c1          	mulss  %xmm1,%xmm0
  40812a:	f3 0f 11 45 f4       	movss  %xmm0,-0xc(%rbp)
  40812f:	f3 0f 10 45 ec       	movss  -0x14(%rbp),%xmm0
  408134:	f3 0f 58 c0          	addss  %xmm0,%xmm0
  408138:	f3 0f 10 0d c0 04 00 	movss  0x4c0(%rip),%xmm1        # 408600 <_IO_stdin_used+0x130>
  40813f:	00 
  408140:	f3 0f 5c c1          	subss  %xmm1,%xmm0
  408144:	0f 28 c8             	movaps %xmm0,%xmm1
  408147:	f3 0f 10 45 f0       	movss  -0x10(%rbp),%xmm0
  40814c:	f3 0f 58 c0          	addss  %xmm0,%xmm0
  408150:	f3 0f 10 15 a8 04 00 	movss  0x4a8(%rip),%xmm2        # 408600 <_IO_stdin_used+0x130>
  408157:	00 
  408158:	f3 0f 5c c2          	subss  %xmm2,%xmm0
  40815c:	f3 0f 59 c1          	mulss  %xmm1,%xmm0
  408160:	48 8b 45 98          	mov    -0x68(%rbp),%rax
  408164:	f3 0f 11 00          	movss  %xmm0,(%rax)
  408168:	f3 0f 10 4d d4       	movss  -0x2c(%rbp),%xmm1
  40816d:	f3 0f 10 05 bb 04 00 	movss  0x4bb(%rip),%xmm0        # 408630 <_IO_stdin_used+0x160>
  408174:	00 
  408175:	f3 0f 59 c1          	mulss  %xmm1,%xmm0
  408179:	f3 0f 10 4d dc       	movss  -0x24(%rbp),%xmm1
  40817e:	f3 0f 59 c8          	mulss  %xmm0,%xmm1
  408182:	f3 0f 10 45 ec       	movss  -0x14(%rbp),%xmm0
  408187:	f3 0f 58 c0          	addss  %xmm0,%xmm0
  40818b:	f3 0f 10 15 6d 04 00 	movss  0x46d(%rip),%xmm2        # 408600 <_IO_stdin_used+0x130>
  408192:	00 
  408193:	f3 0f 5c c2          	subss  %xmm2,%xmm0
  408197:	f3 0f 59 c1          	mulss  %xmm1,%xmm0
  40819b:	f3 0f 10 4d d8       	movss  -0x28(%rbp),%xmm1
  4081a0:	f3 0f 59 c1          	mulss  %xmm1,%xmm0
  4081a4:	f3 0f 10 4d e0       	movss  -0x20(%rbp),%xmm1
  4081a9:	f3 0f 59 c8          	mulss  %xmm0,%xmm1
  4081ad:	f3 0f 10 45 cc       	movss  -0x34(%rbp),%xmm0
  4081b2:	f3 0f 58 c0          	addss  %xmm0,%xmm0
  4081b6:	f3 0f 10 55 d0       	movss  -0x30(%rbp),%xmm2
  4081bb:	f3 0f 59 d0          	mulss  %xmm0,%xmm2
  4081bf:	f3 0f 10 45 f4       	movss  -0xc(%rbp),%xmm0
  4081c4:	f3 0f 58 c0          	addss  %xmm0,%xmm0
  4081c8:	f3 0f 10 1d 30 04 00 	movss  0x430(%rip),%xmm3        # 408600 <_IO_stdin_used+0x130>
  4081cf:	00 
  4081d0:	f3 0f 5c c3          	subss  %xmm3,%xmm0
  4081d4:	f3 0f 59 c2          	mulss  %xmm2,%xmm0
  4081d8:	f3 0f 58 c1          	addss  %xmm1,%xmm0
  4081dc:	48 8b 45 90          	mov    -0x70(%rbp),%rax
  4081e0:	f3 0f 11 00          	movss  %xmm0,(%rax)
  4081e4:	f3 0f 10 4d cc       	movss  -0x34(%rbp),%xmm1
  4081e9:	f3 0f 10 05 3f 04 00 	movss  0x43f(%rip),%xmm0        # 408630 <_IO_stdin_used+0x160>
  4081f0:	00 
  4081f1:	f3 0f 59 c1          	mulss  %xmm1,%xmm0
  4081f5:	f3 0f 10 4d dc       	movss  -0x24(%rbp),%xmm1
  4081fa:	f3 0f 59 c1          	mulss  %xmm1,%xmm0
  4081fe:	f3 0f 10 4d d0       	movss  -0x30(%rbp),%xmm1
  408203:	f3 0f 59 c1          	mulss  %xmm1,%xmm0
  408207:	f3 0f 10 4d e0       	movss  -0x20(%rbp),%xmm1
  40820c:	f3 0f 59 c8          	mulss  %xmm0,%xmm1
  408210:	f3 0f 10 45 d4       	movss  -0x2c(%rbp),%xmm0
  408215:	0f 28 d0             	movaps %xmm0,%xmm2
  408218:	f3 0f 58 d0          	addss  %xmm0,%xmm2
  40821c:	f3 0f 10 45 ec       	movss  -0x14(%rbp),%xmm0
  408221:	f3 0f 58 c0          	addss  %xmm0,%xmm0
  408225:	f3 0f 10 1d d3 03 00 	movss  0x3d3(%rip),%xmm3        # 408600 <_IO_stdin_used+0x130>
  40822c:	00 
  40822d:	f3 0f 5c c3          	subss  %xmm3,%xmm0
  408231:	f3 0f 59 c2          	mulss  %xmm2,%xmm0
  408235:	f3 0f 10 55 d8       	movss  -0x28(%rbp),%xmm2
  40823a:	f3 0f 59 d0          	mulss  %xmm0,%xmm2
  40823e:	f3 0f 10 45 f4       	movss  -0xc(%rbp),%xmm0
  408243:	f3 0f 58 c0          	addss  %xmm0,%xmm0
  408247:	f3 0f 10 1d b1 03 00 	movss  0x3b1(%rip),%xmm3        # 408600 <_IO_stdin_used+0x130>
  40824e:	00 
  40824f:	f3 0f 5c c3          	subss  %xmm3,%xmm0
  408253:	f3 0f 59 c2          	mulss  %xmm2,%xmm0
  408257:	f3 0f 5c c8          	subss  %xmm0,%xmm1
  40825b:	0f 28 c1             	movaps %xmm1,%xmm0
  40825e:	48 8b 45 88          	mov    -0x78(%rbp),%rax
  408262:	f3 0f 11 00          	movss  %xmm0,(%rax)
  408266:	f3 0f 10 45 cc       	movss  -0x34(%rbp),%xmm0
  40826b:	f3 0f 58 c0          	addss  %xmm0,%xmm0
  40826f:	f3 0f 10 4d d0       	movss  -0x30(%rbp),%xmm1
  408274:	f3 0f 59 c8          	mulss  %xmm0,%xmm1
  408278:	f3 0f 10 45 f0       	movss  -0x10(%rbp),%xmm0
  40827d:	f3 0f 58 c0          	addss  %xmm0,%xmm0
  408281:	f3 0f 10 15 77 03 00 	movss  0x377(%rip),%xmm2        # 408600 <_IO_stdin_used+0x130>
  408288:	00 
  408289:	f3 0f 5c d0          	subss  %xmm0,%xmm2
  40828d:	0f 28 c2             	movaps %xmm2,%xmm0
  408290:	f3 0f 59 c1          	mulss  %xmm1,%xmm0
  408294:	48 8b 45 80          	mov    -0x80(%rbp),%rax
  408298:	f3 0f 11 00          	movss  %xmm0,(%rax)
  40829c:	f3 0f 10 4d cc       	movss  -0x34(%rbp),%xmm1
  4082a1:	f3 0f 10 05 8b 03 00 	movss  0x38b(%rip),%xmm0        # 408634 <_IO_stdin_used+0x164>
  4082a8:	00 
  4082a9:	f3 0f 59 c1          	mulss  %xmm1,%xmm0
  4082ad:	f3 0f 10 4d d4       	movss  -0x2c(%rbp),%xmm1
  4082b2:	f3 0f 59 c1          	mulss  %xmm1,%xmm0
  4082b6:	f3 0f 10 4d dc       	movss  -0x24(%rbp),%xmm1
  4082bb:	f3 0f 59 c1          	mulss  %xmm1,%xmm0
  4082bf:	f3 0f 10 4d d0       	movss  -0x30(%rbp),%xmm1
  4082c4:	f3 0f 59 c1          	mulss  %xmm1,%xmm0
  4082c8:	f3 0f 10 4d d8       	movss  -0x28(%rbp),%xmm1
  4082cd:	f3 0f 59 c1          	mulss  %xmm1,%xmm0
  4082d1:	f3 0f 10 4d e0       	movss  -0x20(%rbp),%xmm1
  4082d6:	f3 0f 59 c8          	mulss  %xmm0,%xmm1
  4082da:	f3 0f 10 45 ec       	movss  -0x14(%rbp),%xmm0
  4082df:	f3 0f 58 c0          	addss  %xmm0,%xmm0
  4082e3:	f3 0f 10 15 15 03 00 	movss  0x315(%rip),%xmm2        # 408600 <_IO_stdin_used+0x130>
  4082ea:	00 
  4082eb:	f3 0f 5c c2          	subss  %xmm2,%xmm0
  4082ef:	0f 28 d0             	movaps %xmm0,%xmm2
  4082f2:	f3 0f 10 45 f4       	movss  -0xc(%rbp),%xmm0
  4082f7:	f3 0f 58 c0          	addss  %xmm0,%xmm0
  4082fb:	f3 0f 10 1d fd 02 00 	movss  0x2fd(%rip),%xmm3        # 408600 <_IO_stdin_used+0x130>
  408302:	00 
  408303:	f3 0f 5c c3          	subss  %xmm3,%xmm0
  408307:	f3 0f 59 c2          	mulss  %xmm2,%xmm0
  40830b:	f3 0f 58 c1          	addss  %xmm1,%xmm0
  40830f:	48 8b 85 78 ff ff ff 	mov    -0x88(%rbp),%rax
  408316:	f3 0f 11 00          	movss  %xmm0,(%rax)
  40831a:	f3 0f 10 4d dc       	movss  -0x24(%rbp),%xmm1
  40831f:	f3 0f 10 05 11 03 00 	movss  0x311(%rip),%xmm0        # 408638 <_IO_stdin_used+0x168>
  408326:	00 
  408327:	f3 0f 59 c1          	mulss  %xmm1,%xmm0
  40832b:	f3 0f 10 4d e0       	movss  -0x20(%rbp),%xmm1
  408330:	f3 0f 59 c8          	mulss  %xmm0,%xmm1
  408334:	f3 0f 10 55 d0       	movss  -0x30(%rbp),%xmm2
  408339:	f3 0f 10 05 ef 02 00 	movss  0x2ef(%rip),%xmm0        # 408630 <_IO_stdin_used+0x160>
  408340:	00 
  408341:	f3 0f 59 d0          	mulss  %xmm0,%xmm2
  408345:	f3 0f 10 5d dc       	movss  -0x24(%rbp),%xmm3
  40834a:	f3 0f 10 45 d0       	movss  -0x30(%rbp),%xmm0
  40834f:	f3 0f 59 c3          	mulss  %xmm3,%xmm0
  408353:	f3 0f 10 5d e0       	movss  -0x20(%rbp),%xmm3
  408358:	f3 0f 59 d8          	mulss  %xmm0,%xmm3
  40835c:	f3 0f 10 65 cc       	movss  -0x34(%rbp),%xmm4
  408361:	f3 0f 10 45 d4       	movss  -0x2c(%rbp),%xmm0
  408366:	f3 0f 59 c4          	mulss  %xmm4,%xmm0
  40836a:	f3 0f 10 65 d8       	movss  -0x28(%rbp),%xmm4
  40836f:	f3 0f 59 e0          	mulss  %xmm0,%xmm4
  408373:	f3 0f 10 45 f4       	movss  -0xc(%rbp),%xmm0
  408378:	f3 0f 58 c0          	addss  %xmm0,%xmm0
  40837c:	f3 0f 10 2d 7c 02 00 	movss  0x27c(%rip),%xmm5        # 408600 <_IO_stdin_used+0x130>
  408383:	00 
  408384:	f3 0f 5c c5          	subss  %xmm5,%xmm0
  408388:	f3 0f 59 c4          	mulss  %xmm4,%xmm0
  40838c:	f3 0f 58 c3          	addss  %xmm3,%xmm0
  408390:	f3 0f 59 c2          	mulss  %xmm2,%xmm0
  408394:	f3 0f 58 c1          	addss  %xmm1,%xmm0
  408398:	48 8b 85 70 ff ff ff 	mov    -0x90(%rbp),%rax
  40839f:	f3 0f 11 00          	movss  %xmm0,(%rax)
  4083a3:	f3 0f 10 45 d4       	movss  -0x2c(%rbp),%xmm0
  4083a8:	f3 0f 58 c0          	addss  %xmm0,%xmm0
  4083ac:	f3 0f 10 4d d8       	movss  -0x28(%rbp),%xmm1
  4083b1:	f3 0f 59 c1          	mulss  %xmm1,%xmm0
  4083b5:	48 8b 85 68 ff ff ff 	mov    -0x98(%rbp),%rax
  4083bc:	f3 0f 11 00          	movss  %xmm0,(%rax)
  4083c0:	f3 0f 10 45 dc       	movss  -0x24(%rbp),%xmm0
  4083c5:	0f 28 c8             	movaps %xmm0,%xmm1
  4083c8:	f3 0f 58 c8          	addss  %xmm0,%xmm1
  4083cc:	f3 0f 10 45 f0       	movss  -0x10(%rbp),%xmm0
  4083d1:	f3 0f 58 c0          	addss  %xmm0,%xmm0
  4083d5:	f3 0f 10 15 23 02 00 	movss  0x223(%rip),%xmm2        # 408600 <_IO_stdin_used+0x130>
  4083dc:	00 
  4083dd:	f3 0f 5c d0          	subss  %xmm0,%xmm2
  4083e1:	0f 28 c2             	movaps %xmm2,%xmm0
  4083e4:	f3 0f 59 c1          	mulss  %xmm1,%xmm0
  4083e8:	f3 0f 10 4d e0       	movss  -0x20(%rbp),%xmm1
  4083ed:	f3 0f 59 c1          	mulss  %xmm1,%xmm0
  4083f1:	48 8b 85 60 ff ff ff 	mov    -0xa0(%rbp),%rax
  4083f8:	f3 0f 11 00          	movss  %xmm0,(%rax)
  4083fc:	f3 0f 10 45 f0       	movss  -0x10(%rbp),%xmm0
  408401:	f3 0f 58 c0          	addss  %xmm0,%xmm0
  408405:	f3 0f 10 0d f3 01 00 	movss  0x1f3(%rip),%xmm1        # 408600 <_IO_stdin_used+0x130>
  40840c:	00 
  40840d:	f3 0f 5c c1          	subss  %xmm1,%xmm0
  408411:	0f 28 c8             	movaps %xmm0,%xmm1
  408414:	f3 0f 10 45 f4       	movss  -0xc(%rbp),%xmm0
  408419:	f3 0f 58 c0          	addss  %xmm0,%xmm0
  40841d:	f3 0f 10 15 db 01 00 	movss  0x1db(%rip),%xmm2        # 408600 <_IO_stdin_used+0x130>
  408424:	00 
  408425:	f3 0f 5c c2          	subss  %xmm2,%xmm0
  408429:	f3 0f 59 c1          	mulss  %xmm1,%xmm0
  40842d:	48 8b 85 58 ff ff ff 	mov    -0xa8(%rbp),%rax
  408434:	f3 0f 11 00          	movss  %xmm0,(%rax)
  408438:	90                   	nop
  408439:	48 8b 45 f8          	mov    -0x8(%rbp),%rax
  40843d:	64 48 33 04 25 28 00 	xor    %fs:0x28,%rax
  408444:	00 00 
  408446:	74 05                	je     40844d <_Z15QRDecompositionfffffffffRfS_S_S_S_S_S_S_S_S_S_S_S_S_S_S_S_S_+0x948>
  408448:	e8 f3 8c ff ff       	callq  401140 <__stack_chk_fail@plt>
  40844d:	c9                   	leaveq 
  40844e:	c3                   	retq   
  40844f:	90                   	nop

0000000000408450 <__libc_csu_init>:
  408450:	41 57                	push   %r15
  408452:	41 56                	push   %r14
  408454:	41 89 ff             	mov    %edi,%r15d
  408457:	41 55                	push   %r13
  408459:	41 54                	push   %r12
  40845b:	4c 8d 25 9e 19 20 00 	lea    0x20199e(%rip),%r12        # 609e00 <__frame_dummy_init_array_entry>
  408462:	55                   	push   %rbp
  408463:	48 8d 2d 9e 19 20 00 	lea    0x20199e(%rip),%rbp        # 609e08 <__init_array_end>
  40846a:	53                   	push   %rbx
  40846b:	49 89 f6             	mov    %rsi,%r14
  40846e:	49 89 d5             	mov    %rdx,%r13
  408471:	4c 29 e5             	sub    %r12,%rbp
  408474:	48 83 ec 08          	sub    $0x8,%rsp
  408478:	48 c1 fd 03          	sar    $0x3,%rbp
  40847c:	e8 3f 8c ff ff       	callq  4010c0 <_init>
  408481:	48 85 ed             	test   %rbp,%rbp
  408484:	74 20                	je     4084a6 <__libc_csu_init+0x56>
  408486:	31 db                	xor    %ebx,%ebx
  408488:	0f 1f 84 00 00 00 00 	nopl   0x0(%rax,%rax,1)
  40848f:	00 
  408490:	4c 89 ea             	mov    %r13,%rdx
  408493:	4c 89 f6             	mov    %r14,%rsi
  408496:	44 89 ff             	mov    %r15d,%edi
  408499:	41 ff 14 dc          	callq  *(%r12,%rbx,8)
  40849d:	48 83 c3 01          	add    $0x1,%rbx
  4084a1:	48 39 eb             	cmp    %rbp,%rbx
  4084a4:	75 ea                	jne    408490 <__libc_csu_init+0x40>
  4084a6:	48 83 c4 08          	add    $0x8,%rsp
  4084aa:	5b                   	pop    %rbx
  4084ab:	5d                   	pop    %rbp
  4084ac:	41 5c                	pop    %r12
  4084ae:	41 5d                	pop    %r13
  4084b0:	41 5e                	pop    %r14
  4084b2:	41 5f                	pop    %r15
  4084b4:	c3                   	retq   
  4084b5:	90                   	nop
  4084b6:	66 2e 0f 1f 84 00 00 	nopw   %cs:0x0(%rax,%rax,1)
  4084bd:	00 00 00 

00000000004084c0 <__libc_csu_fini>:
  4084c0:	f3 c3                	repz retq 

Disassembly of section .fini:

00000000004084c4 <_fini>:
  4084c4:	48 83 ec 08          	sub    $0x8,%rsp
  4084c8:	48 83 c4 08          	add    $0x8,%rsp
  4084cc:	c3                   	retq   
